(dp1
S'files'
p2
(dp3
S'_usr_local_lib_python2_7_dist-packages_rest_framework_utils_mediatypes'
p4
(dp5
S'index'
p6
(dp7
S'html_filename'
p8
S'_usr_local_lib_python2_7_dist-packages_rest_framework_utils_mediatypes.html'
p9
sS'name'
p10
S'/usr/local/lib/python2.7/dist-packages/rest_framework/utils/mediatypes'
p11
sS'nums'
p12
ccopy_reg
_reconstructor
p13
(ccoverage.results
Numbers
p14
c__builtin__
object
p15
NtRp16
(dp17
S'n_files'
p18
I1
sS'n_branches'
p19
I0
sS'n_statements'
p20
I44
sS'n_excluded'
p21
I0
sS'n_partial_branches'
p22
I0
sS'n_missing'
p23
I11
sS'n_missing_branches'
p24
I0
sbssS'hash'
p25
S'\x84d\xf9\xb5\x98J\xed;\x83t>:\xb1\x90l_'
p26
ssS'_usr_local_lib_python2_7_dist-packages_django_core_files_temp'
p27
(dp28
g6
(dp29
g8
S'_usr_local_lib_python2_7_dist-packages_django_core_files_temp.html'
p30
sg10
S'/usr/local/lib/python2.7/dist-packages/django/core/files/temp'
p31
sg12
g13
(g14
g15
NtRp32
(dp33
g18
I1
sg19
I0
sg20
I35
sg21
I0
sg22
I0
sg23
I28
sg24
I0
sbssg25
S'X\x96\xe2U9n\xb8\xf9\x145\x97\x8d\x1f\xd6\xa8W'
p34
ssS'_usr_local_lib_python2_7_dist-packages_django_core_files_utils'
p35
(dp36
g6
(dp37
g8
S'_usr_local_lib_python2_7_dist-packages_django_core_files_utils.html'
p38
sg10
S'/usr/local/lib/python2.7/dist-packages/django/core/files/utils'
p39
sg12
g13
(g14
g15
NtRp40
(dp41
g18
I1
sg19
I0
sg20
I19
sg21
I0
sg22
I0
sg23
I1
sg24
I0
sbssg25
S'\x91@)\xe4(\x81\xd6\xb8\x9b\x16\xc4\xeeh\x11e\xff'
p42
ssS'_usr_local_lib_python2_7_dist-packages_django_contrib_admin___init__'
p43
(dp44
g6
(dp45
g8
S'_usr_local_lib_python2_7_dist-packages_django_contrib_admin___init__.html'
p46
sg10
S'/usr/local/lib/python2.7/dist-packages/django/contrib/admin/__init__'
p47
sg12
g13
(g14
g15
NtRp48
(dp49
g18
I1
sg19
I0
sg20
I10
sg21
I0
sg22
I0
sg23
I0
sg24
I0
sbssg25
S'w\xaa\x9dl\xe9\xab\x16\x8b\x9f\x00\\*pe\xfah'
p50
ssS'_usr_local_lib_python2_7_dist-packages_django_contrib_sites___init__'
p51
(dp52
g6
(dp53
g8
S'_usr_local_lib_python2_7_dist-packages_django_contrib_sites___init__.html'
p54
sg10
S'/usr/local/lib/python2.7/dist-packages/django/contrib/sites/__init__'
p55
sg12
g13
(g14
g15
NtRp56
(dp57
g18
I1
sg19
I0
sg20
I1
sg21
I0
sg22
I0
sg23
I0
sg24
I0
sbssg25
S'\x93\xb7\xc1\xce{;\x9a\xad\x93U\x0cm\xf2\xbc\xd0v'
p58
ssS'_usr_local_lib_python2_7_dist-packages_django_utils_html'
p59
(dp60
g6
(dp61
g8
S'_usr_local_lib_python2_7_dist-packages_django_utils_html.html'
p62
sg10
S'/usr/local/lib/python2.7/dist-packages/django/utils/html'
p63
sg12
g13
(g14
g15
NtRp64
(dp65
g18
I1
sg19
I0
sg20
I186
sg21
I0
sg22
I0
sg23
I129
sg24
I0
sbssg25
S'\x03\x87s\x128R\x0e#\xda\t-s\x97\x0e\xc8\xe0'
p66
ssS'_usr_local_lib_python2_7_dist-packages_rest_framework_viewsets'
p67
(dp68
g6
(dp69
g8
S'_usr_local_lib_python2_7_dist-packages_rest_framework_viewsets.html'
p70
sg10
S'/usr/local/lib/python2.7/dist-packages/rest_framework/viewsets'
p71
sg12
g13
(g14
g15
NtRp72
(dp73
g18
I1
sg19
I0
sg20
I42
sg21
I0
sg22
I0
sg23
I25
sg24
I0
sbssg25
S'\xbb\xc6{\xa3\xd7\xf6\xb4SY\xf0c\x10\xb1\xf9\xc1\x84'
p74
ssS'_usr_local_lib_python2_7_dist-packages_django_test_client'
p75
(dp76
g6
(dp77
g8
S'_usr_local_lib_python2_7_dist-packages_django_test_client.html'
p78
sg10
S'/usr/local/lib/python2.7/dist-packages/django/test/client'
p79
sg12
g13
(g14
g15
NtRp80
(dp81
g18
I1
sg19
I0
sg20
I292
sg21
I0
sg22
I0
sg23
I143
sg24
I0
sbssg25
S'a\xd5\x01\xec\x02E+\xc0\xf0\xba\xcb7\xa3\x0b\x98j'
p82
ssS'_usr_local_lib_python2_7_dist-packages_django_core_management_base'
p83
(dp84
g6
(dp85
g8
S'_usr_local_lib_python2_7_dist-packages_django_core_management_base.html'
p86
sg10
S'/usr/local/lib/python2.7/dist-packages/django/core/management/base'
p87
sg12
g13
(g14
g15
NtRp88
(dp89
g18
I1
sg19
I0
sg20
I187
sg21
I0
sg22
I0
sg23
I83
sg24
I0
sbssg25
S'\x8a\xe7=\xa1t\x02F\xd4A\xd2:\n.\x9f}w'
p90
ssS'_usr_local_lib_python2_7_dist-packages_django_forms_models'
p91
(dp92
g6
(dp93
g8
S'_usr_local_lib_python2_7_dist-packages_django_forms_models.html'
p94
sg10
S'/usr/local/lib/python2.7/dist-packages/django/forms/models'
p95
sg12
g13
(g14
g15
NtRp96
(dp97
g18
I1
sg19
I0
sg20
I666
sg21
I0
sg22
I0
sg23
I491
sg24
I0
sbssg25
S'\\\x92\xc2\xb50\xfe!\xa4G\xc1\xc0\xb0\xc5\xb3\r7'
p98
ssS'_usr_local_lib_python2_7_dist-packages_django_core_handlers_base'
p99
(dp100
g6
(dp101
g8
S'_usr_local_lib_python2_7_dist-packages_django_core_handlers_base.html'
p102
sg10
S'/usr/local/lib/python2.7/dist-packages/django/core/handlers/base'
p103
sg12
g13
(g14
g15
NtRp104
(dp105
g18
I1
sg19
I0
sg20
I145
sg21
I0
sg22
I0
sg23
I69
sg24
I0
sbssg25
S'\xab\x9d\xbch\xd3\xce\xac\x88pC\xaf\x94\x11\x96\xfe\xe5'
p106
ssS'_usr_local_lib_python2_7_dist-packages_django_core_signing'
p107
(dp108
g6
(dp109
g8
S'_usr_local_lib_python2_7_dist-packages_django_core_signing.html'
p110
sg10
S'/usr/local/lib/python2.7/dist-packages/django/core/signing'
p111
sg12
g13
(g14
g15
NtRp112
(dp113
g18
I1
sg19
I0
sg20
I87
sg21
I0
sg22
I0
sg23
I55
sg24
I0
sbssg25
S'\xecP\xd6\x0b@~\xaa\x81\x13>\x94\xc9\xcf\x7fh\x93'
p114
ssS'_usr_local_lib_python2_7_dist-packages_django_views_generic_list'
p115
(dp116
g6
(dp117
g8
S'_usr_local_lib_python2_7_dist-packages_django_views_generic_list.html'
p118
sg10
S'/usr/local/lib/python2.7/dist-packages/django/views/generic/list'
p119
sg12
g13
(g14
g15
NtRp120
(dp121
g18
I1
sg19
I0
sg20
I90
sg21
I0
sg22
I0
sg23
I60
sg24
I0
sbssg25
S'\xfe@\xbe7\xb1\x04\xc8\x9f\xf9C\xa2F?+\x18~'
p122
ssS'_usr_local_lib_python2_7_dist-packages_django_utils_lru_cache'
p123
(dp124
g6
(dp125
g8
S'_usr_local_lib_python2_7_dist-packages_django_utils_lru_cache.html'
p126
sg10
S'/usr/local/lib/python2.7/dist-packages/django/utils/lru_cache'
p127
sg12
g13
(g14
g15
NtRp128
(dp129
g18
I1
sg19
I0
sg20
I106
sg21
I0
sg22
I0
sg23
I43
sg24
I0
sbssg25
S"\xa8\x842\x17\x93\x81>\xc8\x1c'\x8f\x03\xfc\r4\xd1"
p130
ssS'_usr_local_lib_python2_7_dist-packages_django_utils_version'
p131
(dp132
g6
(dp133
g8
S'_usr_local_lib_python2_7_dist-packages_django_utils_version.html'
p134
sg10
S'/usr/local/lib/python2.7/dist-packages/django/utils/version'
p135
sg12
g13
(g14
g15
NtRp136
(dp137
g18
I1
sg19
I0
sg20
I29
sg21
I0
sg22
I0
sg23
I15
sg24
I0
sbssg25
S'\x89\x87\xe6q\xaf\xab\xc0\x1aLJ\x16\xd5\xc5\x9a\xdef'
p138
ssS'_usr_local_lib_python2_7_dist-packages_django_db_migrations_graph'
p139
(dp140
g6
(dp141
g8
S'_usr_local_lib_python2_7_dist-packages_django_db_migrations_graph.html'
p142
sg10
S'/usr/local/lib/python2.7/dist-packages/django/db/migrations/graph'
p143
sg12
g13
(g14
g15
NtRp144
(dp145
g18
I1
sg19
I0
sg20
I89
sg21
I0
sg22
I0
sg23
I11
sg24
I0
sbssg25
S'\xac\x92h\xbd\x1a2\xfa\xb7\x0b\xfd\xf5\x97\xa5\x9e\x88\x85'
p146
ssS'_usr_local_lib_python2_7_dist-packages_django_db_migrations_questioner'
p147
(dp148
g6
(dp149
g8
S'_usr_local_lib_python2_7_dist-packages_django_db_migrations_questioner.html'
p150
sg10
S'/usr/local/lib/python2.7/dist-packages/django/db/migrations/questioner'
p151
sg12
g13
(g14
g15
NtRp152
(dp153
g18
I1
sg19
I0
sg20
I103
sg21
I0
sg22
I0
sg23
I77
sg24
I0
sbssg25
S'1\xd8[z\x12\xce\xce8i\xf0X\t\x87\xaa\xcd\x8d'
p154
ssS'_usr_local_lib_python2_7_dist-packages_django_utils_module_loading'
p155
(dp156
g6
(dp157
g8
S'_usr_local_lib_python2_7_dist-packages_django_utils_module_loading.html'
p158
sg10
S'/usr/local/lib/python2.7/dist-packages/django/utils/module_loading'
p159
sg12
g13
(g14
g15
NtRp160
(dp161
g18
I1
sg19
I0
sg20
I89
sg21
I0
sg22
I0
sg23
I25
sg24
I0
sbssg25
S'\xf9\x7f-\xae\x16:\x8c,v\x11(\xe4\x86\xcd\x84\xb4'
p162
ssS'_usr_local_lib_python2_7_dist-packages_django_contrib_sessions_migrations___init__'
p163
(dp164
g6
(dp165
g8
S'_usr_local_lib_python2_7_dist-packages_django_contrib_sessions_migrations___init__.html'
p166
sg10
S'/usr/local/lib/python2.7/dist-packages/django/contrib/sessions/migrations/__init__'
p167
sg12
g13
(g14
g15
NtRp168
(dp169
g18
I1
sg19
I0
sg20
I0
sg21
I0
sg22
I0
sg23
I0
sg24
I0
sbssg25
S'\xb0\xc8pN\xaf>\xa0\xbaz\x144\xe0A9\xb8?'
p170
ssS'_usr_local_lib_python2_7_dist-packages_django_contrib_contenttypes___init__'
p171
(dp172
g6
(dp173
g8
S'_usr_local_lib_python2_7_dist-packages_django_contrib_contenttypes___init__.html'
p174
sg10
S'/usr/local/lib/python2.7/dist-packages/django/contrib/contenttypes/__init__'
p175
sg12
g13
(g14
g15
NtRp176
(dp177
g18
I1
sg19
I0
sg20
I1
sg21
I0
sg22
I0
sg23
I0
sg24
I0
sbssg25
S'<\x90\xfeqB1~\xf9\x95\xabK \x85\xa712'
p178
ssS'_usr_local_lib_python2_7_dist-packages_django_utils_decorators'
p179
(dp180
g6
(dp181
g8
S'_usr_local_lib_python2_7_dist-packages_django_utils_decorators.html'
p182
sg10
S'/usr/local/lib/python2.7/dist-packages/django/utils/decorators'
p183
sg12
g13
(g14
g15
NtRp184
(dp185
g18
I1
sg19
I0
sg20
I64
sg21
I0
sg22
I0
sg23
I33
sg24
I0
sbssg25
S'\xc2\xbfs\x96\xfbq\xec\x97\x8d\x0e\xd5I\x84\xcc\n\x0f'
p186
ssS'_usr_local_lib_python2_7_dist-packages_django_core_checks_messages'
p187
(dp188
g6
(dp189
g8
S'_usr_local_lib_python2_7_dist-packages_django_core_checks_messages.html'
p190
sg10
S'/usr/local/lib/python2.7/dist-packages/django/core/checks/messages'
p191
sg12
g13
(g14
g15
NtRp192
(dp193
g18
I1
sg19
I0
sg20
I54
sg21
I0
sg22
I0
sg23
I28
sg24
I0
sbssg25
S'\x94NT\x99\xff.\xbf\x1d\x83\xbc\xad\xe4\xec\x91xY'
p194
ssS'_usr_local_lib_python2_7_dist-packages_django_db_migrations_recorder'
p195
(dp196
g6
(dp197
g8
S'_usr_local_lib_python2_7_dist-packages_django_db_migrations_recorder.html'
p198
sg10
S'/usr/local/lib/python2.7/dist-packages/django/db/migrations/recorder'
p199
sg12
g13
(g14
g15
NtRp200
(dp201
g18
I1
sg19
I0
sg20
I37
sg21
I0
sg22
I0
sg23
I4
sg24
I0
sbssg25
S'\x99\xaagkkyA1\xdb\x06\x99W\x90b\xf84'
p202
ssS'_usr_local_lib_python2_7_dist-packages_django_utils_numberformat'
p203
(dp204
g6
(dp205
g8
S'_usr_local_lib_python2_7_dist-packages_django_utils_numberformat.html'
p206
sg10
S'/usr/local/lib/python2.7/dist-packages/django/utils/numberformat'
p207
sg12
g13
(g14
g15
NtRp208
(dp209
g18
I1
sg19
I0
sg20
I31
sg21
I0
sg22
I0
sg23
I27
sg24
I0
sbssg25
S'\xf0(3>w\xdbe\x8d\x05\x0e\x03\x13{\x0c\x8d/'
p210
ssS'_usr_local_lib_python2_7_dist-packages_django_db_backends_mysql_client'
p211
(dp212
g6
(dp213
g8
S'_usr_local_lib_python2_7_dist-packages_django_db_backends_mysql_client.html'
p214
sg10
S'/usr/local/lib/python2.7/dist-packages/django/db/backends/mysql/client'
p215
sg12
g13
(g14
g15
NtRp216
(dp217
g18
I1
sg19
I0
sg20
I31
sg21
I0
sg22
I0
sg23
I25
sg24
I0
sbssg25
S'\xa0\xbc\x89\x17\xc9a\xb7\xab\xe4\xcae\xe3\xc2\xe0^\xdc'
p218
ssS'_usr_local_lib_python2_7_dist-packages_rest_framework_decorators'
p219
(dp220
g6
(dp221
g8
S'_usr_local_lib_python2_7_dist-packages_rest_framework_decorators.html'
p222
sg10
S'/usr/local/lib/python2.7/dist-packages/rest_framework/decorators'
p223
sg12
g13
(g14
g15
NtRp224
(dp225
g18
I1
sg19
I0
sg20
I65
sg21
I0
sg22
I0
sg23
I34
sg24
I0
sbssg25
S'$K\xf8\xb5C\xf5\xa9\xe6\xb7\xb0\xe9\xee[\xc7\xdc\x83'
p226
ssS'_usr_local_lib_python2_7_dist-packages_django_contrib_auth___init__'
p227
(dp228
g6
(dp229
g8
S'_usr_local_lib_python2_7_dist-packages_django_contrib_auth___init__.html'
p230
sg10
S'/usr/local/lib/python2.7/dist-packages/django/contrib/auth/__init__'
p231
sg12
g13
(g14
g15
NtRp232
(dp233
g18
I1
sg19
I0
sg20
I105
sg21
I0
sg22
I0
sg23
I79
sg24
I0
sbssg25
S'\xff\xf9\xb2?\xcfo:\x06\xce\xb3^\xaa"@\x05\xcd'
p234
ssS'_usr_local_lib_python2_7_dist-packages_django_contrib_sessions_migrations_0001_initial'
p235
(dp236
g6
(dp237
g8
S'_usr_local_lib_python2_7_dist-packages_django_contrib_sessions_migrations_0001_initial.html'
p238
sg10
S'/usr/local/lib/python2.7/dist-packages/django/contrib/sessions/migrations/0001_initial'
p239
sg12
g13
(g14
g15
NtRp240
(dp241
g18
I1
sg19
I0
sg20
I5
sg21
I0
sg22
I0
sg23
I0
sg24
I0
sbssg25
S"\x99'#<\nE\xad\x97\xf7\xfd\xe7I\xcfX\xeb\x07"
p242
ssS'_usr_local_lib_python2_7_dist-packages_django_utils_tree'
p243
(dp244
g6
(dp245
g8
S'_usr_local_lib_python2_7_dist-packages_django_utils_tree.html'
p246
sg10
S'/usr/local/lib/python2.7/dist-packages/django/utils/tree'
p247
sg12
g13
(g14
g15
NtRp248
(dp249
g18
I1
sg19
I0
sg20
I50
sg21
I0
sg22
I0
sg23
I20
sg24
I0
sbssg25
S'\xda\xd8\xc8\x88*\x14]4\xfe\x1b\xfa\xc3\xec\x07\xfc\xfb'
p250
ssS'_usr_local_lib_python2_7_dist-packages_django_template_loaders___init__'
p251
(dp252
g6
(dp253
g8
S'_usr_local_lib_python2_7_dist-packages_django_template_loaders___init__.html'
p254
sg10
S'/usr/local/lib/python2.7/dist-packages/django/template/loaders/__init__'
p255
sg12
g13
(g14
g15
NtRp256
(dp257
g18
I1
sg19
I0
sg20
I0
sg21
I0
sg22
I0
sg23
I0
sg24
I0
sbssg25
S'\xb0\xc8pN\xaf>\xa0\xbaz\x144\xe0A9\xb8?'
p258
ssS'_usr_local_lib_python2_7_dist-packages_django_db_models_fields_files'
p259
(dp260
g6
(dp261
g8
S'_usr_local_lib_python2_7_dist-packages_django_db_models_fields_files.html'
p262
sg10
S'/usr/local/lib/python2.7/dist-packages/django/db/models/fields/files'
p263
sg12
g13
(g14
g15
NtRp264
(dp265
g18
I1
sg19
I0
sg20
I247
sg21
I0
sg22
I0
sg23
I170
sg24
I0
sbssg25
S'1/Q-5D[\x9d\xb46\xca\xd4kZ\x9e\xc9'
p266
ssS'_usr_local_lib_python2_7_dist-packages_django_test_runner'
p267
(dp268
g6
(dp269
g8
S'_usr_local_lib_python2_7_dist-packages_django_test_runner.html'
p270
sg10
S'/usr/local/lib/python2.7/dist-packages/django/test/runner'
p271
sg12
g13
(g14
g15
NtRp272
(dp273
g18
I1
sg19
I0
sg20
I163
sg21
I0
sg22
I0
sg23
I18
sg24
I0
sbssg25
S'\xba(M:\xc0t$\xf3\x95\xa0\xac%g\xb1\xc7!'
p274
ssS'_usr_local_lib_python2_7_dist-packages_django_db_migrations_executor'
p275
(dp276
g6
(dp277
g8
S'_usr_local_lib_python2_7_dist-packages_django_db_migrations_executor.html'
p278
sg10
S'/usr/local/lib/python2.7/dist-packages/django/db/migrations/executor'
p279
sg12
g13
(g14
g15
NtRp280
(dp281
g18
I1
sg19
I0
sg20
I94
sg21
I0
sg22
I0
sg23
I40
sg24
I0
sbssg25
S'\x1f[\xb3i9\x10|\x99\x94\x16\x9b00_\xc3\xc0'
p282
ssS'_usr_local_lib_python2_7_dist-packages_django_utils_crypto'
p283
(dp284
g6
(dp285
g8
S'_usr_local_lib_python2_7_dist-packages_django_utils_crypto.html'
p286
sg10
S'/usr/local/lib/python2.7/dist-packages/django/utils/crypto'
p287
sg12
g13
(g14
g15
NtRp288
(dp289
g18
I1
sg19
I0
sg20
I75
sg21
I0
sg22
I0
sg23
I55
sg24
I0
sbssg25
S'\xa0\xea\xc2\xb3\xb0\xc4aq\x83\xe8\x00\x8a\xf0a#\x93'
p290
ssS'_usr_local_lib_python2_7_dist-packages_django_db_backends_creation'
p291
(dp292
g6
(dp293
g8
S'_usr_local_lib_python2_7_dist-packages_django_db_backends_creation.html'
p294
sg10
S'/usr/local/lib/python2.7/dist-packages/django/db/backends/creation'
p295
sg12
g13
(g14
g15
NtRp296
(dp297
g18
I1
sg19
I0
sg20
I287
sg21
I0
sg22
I0
sg23
I125
sg24
I0
sbssg25
S']\xb3{gQB\x9f\xc3\xb2\x82\x0bX\xc2\xddrM'
p298
ssS'_usr_local_lib_python2_7_dist-packages_django_contrib_admin_templatetags_admin_static'
p299
(dp300
g6
(dp301
g8
S'_usr_local_lib_python2_7_dist-packages_django_contrib_admin_templatetags_admin_static.html'
p302
sg10
S'/usr/local/lib/python2.7/dist-packages/django/contrib/admin/templatetags/admin_static'
p303
sg12
g13
(g14
g15
NtRp304
(dp305
g18
I1
sg19
I0
sg20
I10
sg21
I0
sg22
I0
sg23
I5
sg24
I0
sbssg25
S'\xa9\xc7\x10\x8f!,\xf1\xd4\x9a\x9fk\xc6$\xe8u%'
p306
ssS'_usr_local_lib_python2_7_dist-packages_django_conf_urls___init__'
p307
(dp308
g6
(dp309
g8
S'_usr_local_lib_python2_7_dist-packages_django_conf_urls___init__.html'
p310
sg10
S'/usr/local/lib/python2.7/dist-packages/django/conf/urls/__init__'
p311
sg12
g13
(g14
g15
NtRp312
(dp313
g18
I1
sg19
I0
sg20
I42
sg21
I0
sg22
I0
sg23
I5
sg24
I0
sbssg25
S'_\x1f\x9c>\xd1\xadPF\x1fWf\x96r0?T'
p314
ssS'_usr_local_lib_python2_7_dist-packages_django_core_checks___init__'
p315
(dp316
g6
(dp317
g8
S'_usr_local_lib_python2_7_dist-packages_django_core_checks___init__.html'
p318
sg10
S'/usr/local/lib/python2.7/dist-packages/django/core/checks/__init__'
p319
sg12
g13
(g14
g15
NtRp320
(dp321
g18
I1
sg19
I0
sg20
I7
sg21
I0
sg22
I0
sg23
I0
sg24
I0
sbssg25
S'\tZJ\x14v\xbc\xe6\xab\xb1\xfcx\xf4\xaa>\xec\xfe'
p322
ssS'_usr_local_lib_python2_7_dist-packages_django_db_models_manager'
p323
(dp324
g6
(dp325
g8
S'_usr_local_lib_python2_7_dist-packages_django_db_models_manager.html'
p326
sg10
S'/usr/local/lib/python2.7/dist-packages/django/db/models/manager'
p327
sg12
g13
(g14
g15
NtRp328
(dp329
g18
I1
sg19
I0
sg20
I137
sg21
I0
sg22
I0
sg23
I17
sg24
I0
sbssg25
S'\x91Kl\x1ad\x94\xd0\x88\xaf\x9fC\xe56,\x9ci'
p330
ssS'manage'
p331
(dp332
g6
(dp333
g8
S'manage.html'
p334
sg10
g331
sg12
g13
(g14
g15
NtRp335
(dp336
g18
I1
sg19
I0
sg20
I6
sg21
I0
sg22
I0
sg23
I0
sg24
I0
sbssg25
S'WQ\xb1\xe2Q\xbe\x9f\xab8\xfaz\xe5^4\xb3\x91'
p337
ssS'_usr_local_lib_python2_7_dist-packages_rest_framework_request'
p338
(dp339
g6
(dp340
g8
S'_usr_local_lib_python2_7_dist-packages_rest_framework_request.html'
p341
sg10
S'/usr/local/lib/python2.7/dist-packages/rest_framework/request'
p342
sg12
g13
(g14
g15
NtRp343
(dp344
g18
I1
sg19
I0
sg20
I232
sg21
I0
sg22
I0
sg23
I124
sg24
I0
sbssg25
S'\x8b{,z\x97D"&!H\xd7=\xa2\x11BW'
p345
ssS'_usr_local_lib_python2_7_dist-packages_django_test___init__'
p346
(dp347
g6
(dp348
g8
S'_usr_local_lib_python2_7_dist-packages_django_test___init__.html'
p349
sg10
S'/usr/local/lib/python2.7/dist-packages/django/test/__init__'
p350
sg12
g13
(g14
g15
NtRp351
(dp352
g18
I1
sg19
I0
sg20
I4
sg21
I0
sg22
I0
sg23
I0
sg24
I0
sbssg25
S"\xa8'\xae\xd0fB{\xf4G:\xfc.\xaf~<m"
p353
ssS'myproject___init__'
p354
(dp355
g6
(dp356
g8
S'myproject___init__.html'
p357
sg10
S'myproject/__init__'
p358
sg12
g13
(g14
g15
NtRp359
(dp360
g18
I1
sg19
I0
sg20
I0
sg21
I0
sg22
I0
sg23
I0
sg24
I0
sbssg25
S'\xb0\xc8pN\xaf>\xa0\xbaz\x144\xe0A9\xb8?'
p361
ssS'_usr_local_lib_python2_7_dist-packages_django_contrib_staticfiles_utils'
p362
(dp363
g6
(dp364
g8
S'_usr_local_lib_python2_7_dist-packages_django_contrib_staticfiles_utils.html'
p365
sg10
S'/usr/local/lib/python2.7/dist-packages/django/contrib/staticfiles/utils'
p366
sg12
g13
(g14
g15
NtRp367
(dp368
g18
I1
sg19
I0
sg20
I37
sg21
I0
sg22
I0
sg23
I26
sg24
I0
sbssg25
S'\x8e\xef\xc3\x84z\r\xb2n\xf5\xcb\x08*\xd1\xf7\xc3\x9a'
p369
ssS'_usr_local_lib_python2_7_dist-packages_rest_framework_response'
p370
(dp371
g6
(dp372
g8
S'_usr_local_lib_python2_7_dist-packages_rest_framework_response.html'
p373
sg10
S'/usr/local/lib/python2.7/dist-packages/rest_framework/response'
p374
sg12
g13
(g14
g15
NtRp375
(dp376
g18
I1
sg19
I0
sg20
I45
sg21
I0
sg22
I0
sg23
I13
sg24
I0
sbssg25
S'P\xfd\xaa10`\xfb\xad\xb1\xeb\x83\xf4\x84C\x95Y'
p377
ssS'_usr_local_lib_python2_7_dist-packages_django_contrib_sessions_backends___init__'
p378
(dp379
g6
(dp380
g8
S'_usr_local_lib_python2_7_dist-packages_django_contrib_sessions_backends___init__.html'
p381
sg10
S'/usr/local/lib/python2.7/dist-packages/django/contrib/sessions/backends/__init__'
p382
sg12
g13
(g14
g15
NtRp383
(dp384
g18
I1
sg19
I0
sg20
I0
sg21
I0
sg22
I0
sg23
I0
sg24
I0
sbssg25
S'\xb0\xc8pN\xaf>\xa0\xbaz\x144\xe0A9\xb8?'
p385
ssS'_usr_local_lib_python2_7_dist-packages_django_template_loaders_filesystem'
p386
(dp387
g6
(dp388
g8
S'_usr_local_lib_python2_7_dist-packages_django_template_loaders_filesystem.html'
p389
sg10
S'/usr/local/lib/python2.7/dist-packages/django/template/loaders/filesystem'
p390
sg12
g13
(g14
g15
NtRp391
(dp392
g18
I1
sg19
I0
sg20
I29
sg21
I0
sg22
I0
sg23
I8
sg24
I0
sbssg25
S'\x86:\xc4/\x12\x1fN@\\\xf2+\x88\xca\x88\xff\xff'
p393
ssS'_usr_local_lib_python2_7_dist-packages_rest_framework_mixins'
p394
(dp395
g6
(dp396
g8
S'_usr_local_lib_python2_7_dist-packages_rest_framework_mixins.html'
p397
sg10
S'/usr/local/lib/python2.7/dist-packages/rest_framework/mixins'
p398
sg12
g13
(g14
g15
NtRp399
(dp400
g18
I1
sg19
I0
sg20
I52
sg21
I0
sg22
I0
sg23
I33
sg24
I0
sbssg25
S'g\xec\xc2>\xa9J\x85\x81\xeb\x87\x08\x18O\x0f\xa9\xdf'
p401
ssS'_usr_local_lib_python2_7_dist-packages_rest_framework_utils_urls'
p402
(dp403
g6
(dp404
g8
S'_usr_local_lib_python2_7_dist-packages_rest_framework_utils_urls.html'
p405
sg10
S'/usr/local/lib/python2.7/dist-packages/rest_framework/utils/urls'
p406
sg12
g13
(g14
g15
NtRp407
(dp408
g18
I1
sg19
I0
sg20
I13
sg21
I0
sg22
I0
sg23
I10
sg24
I0
sbssg25
S'\xe3*\xb0\x9582\x0c\x8fUF\xfa\xa7\xaa\xbbGg'
p409
ssS'_usr_local_lib_python2_7_dist-packages_django_contrib_messages_storage___init__'
p410
(dp411
g6
(dp412
g8
S'_usr_local_lib_python2_7_dist-packages_django_contrib_messages_storage___init__.html'
p413
sg10
S'/usr/local/lib/python2.7/dist-packages/django/contrib/messages/storage/__init__'
p414
sg12
g13
(g14
g15
NtRp415
(dp416
g18
I1
sg19
I0
sg20
I4
sg21
I0
sg22
I0
sg23
I0
sg24
I0
sbssg25
S'\xfeS\xb0"U\x82\x03i\xf2PT\x1cu\x99\x1c\x98'
p417
ssS'_usr_local_lib_python2_7_dist-packages_django_contrib_contenttypes_views'
p418
(dp419
g6
(dp420
g8
S'_usr_local_lib_python2_7_dist-packages_django_contrib_contenttypes_views.html'
p421
sg10
S'/usr/local/lib/python2.7/dist-packages/django/contrib/contenttypes/views'
p422
sg12
g13
(g14
g15
NtRp423
(dp424
g18
I1
sg19
I0
sg20
I53
sg21
I0
sg22
I0
sg23
I45
sg24
I0
sbssg25
S'2q|\xbf\xd6\xc1\x91!\xbf\xb0\x8f\xc0\xc4PVq'
p425
ssS'_usr_local_lib_python2_7_dist-packages_django_dispatch_dispatcher'
p426
(dp427
g6
(dp428
g8
S'_usr_local_lib_python2_7_dist-packages_django_dispatch_dispatcher.html'
p429
sg10
S'/usr/local/lib/python2.7/dist-packages/django/dispatch/dispatcher'
p430
sg12
g13
(g14
g15
NtRp431
(dp432
g18
I1
sg19
I0
sg20
I135
sg21
I0
sg22
I0
sg23
I37
sg24
I0
sbssg25
S'\xcb\xae"\x88\xc08\xe4\x8f1=\xf4\x917\xbf\x82\xd5'
p433
ssS'_usr_local_lib_python2_7_dist-packages_django_utils_timesince'
p434
(dp435
g6
(dp436
g8
S'_usr_local_lib_python2_7_dist-packages_django_utils_timesince.html'
p437
sg10
S'/usr/local/lib/python2.7/dist-packages/django/utils/timesince'
p438
sg12
g13
(g14
g15
NtRp439
(dp440
g18
I1
sg19
I0
sg20
I30
sg21
I0
sg22
I0
sg23
I23
sg24
I0
sbssg25
S'\xb6\xdfly\xcc\x1e\xcc\x91\xce\\\x8b\xa8F\xc4\xcfR'
p441
ssS'_usr_local_lib_python2_7_dist-packages_django_db_migrations_operations___init__'
p442
(dp443
g6
(dp444
g8
S'_usr_local_lib_python2_7_dist-packages_django_db_migrations_operations___init__.html'
p445
sg10
S'/usr/local/lib/python2.7/dist-packages/django/db/migrations/operations/__init__'
p446
sg12
g13
(g14
g15
NtRp447
(dp448
g18
I1
sg19
I0
sg20
I4
sg21
I0
sg22
I0
sg23
I0
sg24
I0
sbssg25
S'6\xa8\x95\xafQ2\xfc\x9aQ\xf9q\xe9G\xd8\xf2\xdb'
p449
ssS'_usr_local_lib_python2_7_dist-packages_django_contrib_contenttypes_admin'
p450
(dp451
g6
(dp452
g8
S'_usr_local_lib_python2_7_dist-packages_django_contrib_contenttypes_admin.html'
p453
sg10
S'/usr/local/lib/python2.7/dist-packages/django/contrib/contenttypes/admin'
p454
sg12
g13
(g14
g15
NtRp455
(dp456
g18
I1
sg19
I0
sg20
I55
sg21
I0
sg22
I0
sg23
I32
sg24
I0
sbssg25
S'\xdc\xda\x958\x17\xf6\x12\x01\x9c\xccn\xb4\x7f3m\x9e'
p457
ssS'_usr_local_lib_python2_7_dist-packages_django_dispatch___init__'
p458
(dp459
g6
(dp460
g8
S'_usr_local_lib_python2_7_dist-packages_django_dispatch___init__.html'
p461
sg10
S'/usr/local/lib/python2.7/dist-packages/django/dispatch/__init__'
p462
sg12
g13
(g14
g15
NtRp463
(dp464
g18
I1
sg19
I0
sg20
I1
sg21
I0
sg22
I0
sg23
I0
sg24
I0
sbssg25
S'\xa7>\xfc]\xa2\xc8\x97\x0b\xfb2\xef\xeep\xb7\xed\x99'
p465
ssS'_usr_local_lib_python2_7_dist-packages_django_contrib_contenttypes_apps'
p466
(dp467
g6
(dp468
g8
S'_usr_local_lib_python2_7_dist-packages_django_contrib_contenttypes_apps.html'
p469
sg10
S'/usr/local/lib/python2.7/dist-packages/django/contrib/contenttypes/apps'
p470
sg12
g13
(g14
g15
NtRp471
(dp472
g18
I1
sg19
I0
sg20
I9
sg21
I0
sg22
I0
sg23
I0
sg24
I0
sbssg25
S'@\tU\xe02i\xd0\x87\x87o\x96\xe8\xad\xd2\xcfj'
p473
ssS'_usr_local_lib_python2_7_dist-packages_django_core_management_sql'
p474
(dp475
g6
(dp476
g8
S'_usr_local_lib_python2_7_dist-packages_django_core_management_sql.html'
p477
sg10
S'/usr/local/lib/python2.7/dist-packages/django/core/management/sql'
p478
sg12
g13
(g14
g15
NtRp479
(dp480
g18
I1
sg19
I0
sg20
I152
sg21
I0
sg22
I0
sg23
I95
sg24
I0
sbssg25
S'\x9d\xecv\xfd\xd3`\x99`z\xc7\x0b%+\xd7:\x01'
p481
ssS'_usr_local_lib_python2_7_dist-packages_django_views_decorators_cache'
p482
(dp483
g6
(dp484
g8
S'_usr_local_lib_python2_7_dist-packages_django_views_decorators_cache.html'
p485
sg10
S'/usr/local/lib/python2.7/dist-packages/django/views/decorators/cache'
p486
sg12
g13
(g14
g15
NtRp487
(dp488
g18
I1
sg19
I0
sg20
I27
sg21
I0
sg22
I0
sg23
I18
sg24
I0
sbssg25
S'\xcc2\xff\x12\xd7lL#H\xd9\x96\xd9\xc0\xb6\xb4E'
p489
ssS'_usr_local_lib_python2_7_dist-packages_django_forms___init__'
p490
(dp491
g6
(dp492
g8
S'_usr_local_lib_python2_7_dist-packages_django_forms___init__.html'
p493
sg10
S'/usr/local/lib/python2.7/dist-packages/django/forms/__init__'
p494
sg12
g13
(g14
g15
NtRp495
(dp496
g18
I1
sg19
I0
sg20
I6
sg21
I0
sg22
I0
sg23
I0
sg24
I0
sbssg25
S'\xcf\x89\xf0\x10F\x0f#(jw\xcd\xab\x9bs\x14\x84'
p497
ssS'_usr_local_lib_python2_7_dist-packages_django_db_models_related'
p498
(dp499
g6
(dp500
g8
S'_usr_local_lib_python2_7_dist-packages_django_db_models_related.html'
p501
sg10
S'/usr/local/lib/python2.7/dist-packages/django/db/models/related'
p502
sg12
g13
(g14
g15
NtRp503
(dp504
g18
I1
sg19
I0
sg20
I35
sg21
I0
sg22
I0
sg23
I13
sg24
I0
sbssg25
S'\xc5\xcevX(\x17X3\xf2-r\xf4UM\x90\xac'
p505
ssS'_usr_local_lib_python2_7_dist-packages_django_contrib_contenttypes_forms'
p506
(dp507
g6
(dp508
g8
S'_usr_local_lib_python2_7_dist-packages_django_contrib_contenttypes_forms.html'
p509
sg10
S'/usr/local/lib/python2.7/dist-packages/django/contrib/contenttypes/forms'
p510
sg12
g13
(g14
g15
NtRp511
(dp512
g18
I1
sg19
I0
sg20
I38
sg21
I0
sg22
I0
sg23
I28
sg24
I0
sbssg25
S'\x96i\xbb\x98m\xda\xf19\x8b\xc1m{\xc0\x01\xe6\x01'
p513
ssS'_usr_local_lib_python2_7_dist-packages_django_contrib_auth_tokens'
p514
(dp515
g6
(dp516
g8
S'_usr_local_lib_python2_7_dist-packages_django_contrib_auth_tokens.html'
p517
sg10
S'/usr/local/lib/python2.7/dist-packages/django/contrib/auth/tokens'
p518
sg12
g13
(g14
g15
NtRp519
(dp520
g18
I1
sg19
I0
sg20
I34
sg21
I0
sg22
I0
sg23
I22
sg24
I0
sbssg25
S'\xd1\xd4\x9e\xff2}]\xe5\x00\xf9\xfe\x868\xa6\x92+'
p521
ssS'_usr_local_lib_python2_7_dist-packages_django_contrib_messages_api'
p522
(dp523
g6
(dp524
g8
S'_usr_local_lib_python2_7_dist-packages_django_contrib_messages_api.html'
p525
sg10
S'/usr/local/lib/python2.7/dist-packages/django/contrib/messages/api'
p526
sg12
g13
(g14
g15
NtRp527
(dp528
g18
I1
sg19
I0
sg20
I37
sg21
I0
sg22
I0
sg23
I22
sg24
I0
sbssg25
S'*\x90\x9c\xde\x9f\xd9c\x00\xdaNX \xde\x17\x92a'
p529
ssS'_usr_local_lib_python2_7_dist-packages_django_db_backends_mysql___init__'
p530
(dp531
g6
(dp532
g8
S'_usr_local_lib_python2_7_dist-packages_django_db_backends_mysql___init__.html'
p533
sg10
S'/usr/local/lib/python2.7/dist-packages/django/db/backends/mysql/__init__'
p534
sg12
g13
(g14
g15
NtRp535
(dp536
g18
I1
sg19
I0
sg20
I0
sg21
I0
sg22
I0
sg23
I0
sg24
I0
sbssg25
S'\xb0\xc8pN\xaf>\xa0\xbaz\x144\xe0A9\xb8?'
p537
ssS'_usr_local_lib_python2_7_dist-packages_django_core___init__'
p538
(dp539
g6
(dp540
g8
S'_usr_local_lib_python2_7_dist-packages_django_core___init__.html'
p541
sg10
S'/usr/local/lib/python2.7/dist-packages/django/core/__init__'
p542
sg12
g13
(g14
g15
NtRp543
(dp544
g18
I1
sg19
I0
sg20
I0
sg21
I0
sg22
I0
sg23
I0
sg24
I0
sbssg25
S'\xb0\xc8pN\xaf>\xa0\xbaz\x144\xe0A9\xb8?'
p545
ssS'_usr_local_lib_python2_7_dist-packages_django_template_loader_tags'
p546
(dp547
g6
(dp548
g8
S'_usr_local_lib_python2_7_dist-packages_django_template_loader_tags.html'
p549
sg10
S'/usr/local/lib/python2.7/dist-packages/django/template/loader_tags'
p550
sg12
g13
(g14
g15
NtRp551
(dp552
g18
I1
sg19
I0
sg20
I153
sg21
I0
sg22
I0
sg23
I101
sg24
I0
sbssg25
S'\xf4r\xc8\xec\xaf\x9e\x81.\x95I\x06I\xfa\x7f\xcd`'
p553
ssS'myapp_admin'
p554
(dp555
g6
(dp556
g8
S'myapp_admin.html'
p557
sg10
S'myapp/admin'
p558
sg12
g13
(g14
g15
NtRp559
(dp560
g18
I1
sg19
I0
sg20
I1
sg21
I0
sg22
I0
sg23
I0
sg24
I0
sbssg25
S'n\x07LE88\xf3&\x91\x1d\xfb3\xba)Ar'
p561
ssS'_usr_local_lib_python2_7_dist-packages_django_db_models_query_utils'
p562
(dp563
g6
(dp564
g8
S'_usr_local_lib_python2_7_dist-packages_django_db_models_query_utils.html'
p565
sg10
S'/usr/local/lib/python2.7/dist-packages/django/db/models/query_utils'
p566
sg12
g13
(g14
g15
NtRp567
(dp568
g18
I1
sg19
I0
sg20
I104
sg21
I0
sg22
I0
sg23
I75
sg24
I0
sbssg25
S'\x81\x96\x0fY] \x99\xb6\xc6\x0f\xf6\x86\xaf\xb0)\xf4'
p569
ssS'_usr_local_lib_python2_7_dist-packages_django_contrib_auth_signals'
p570
(dp571
g6
(dp572
g8
S'_usr_local_lib_python2_7_dist-packages_django_contrib_auth_signals.html'
p573
sg10
S'/usr/local/lib/python2.7/dist-packages/django/contrib/auth/signals'
p574
sg12
g13
(g14
g15
NtRp575
(dp576
g18
I1
sg19
I0
sg20
I4
sg21
I0
sg22
I0
sg23
I0
sg24
I0
sbssg25
S'juq\x85\xf8\xf6\x92\xd4\xc6;\xc1\x16\xc2\xaa\xe6\xec'
p577
ssS'_usr_local_lib_python2_7_dist-packages_django_db_models_base'
p578
(dp579
g6
(dp580
g8
S'_usr_local_lib_python2_7_dist-packages_django_db_models_base.html'
p581
sg10
S'/usr/local/lib/python2.7/dist-packages/django/db/models/base'
p582
sg12
g13
(g14
g15
NtRp583
(dp584
g18
I1
sg19
I0
sg20
I730
sg21
I0
sg22
I0
sg23
I381
sg24
I0
sbssg25
S'\xe1}\x0e\xd6\x06\xd4\t\x04\xa7X\xe5\xfd<\xe3\x0f\xcb'
p585
ssS'_usr_local_lib_python2_7_dist-packages_django_core_management_commands_test'
p586
(dp587
g6
(dp588
g8
S'_usr_local_lib_python2_7_dist-packages_django_core_management_commands_test.html'
p589
sg10
S'/usr/local/lib/python2.7/dist-packages/django/core/management/commands/test'
p590
sg12
g13
(g14
g15
NtRp591
(dp592
g18
I1
sg19
I0
sg20
I46
sg21
I0
sg22
I0
sg23
I5
sg24
I0
sbssg25
S'\xda\xb6b\xb5\xf64\xd9{\xbe\xf3\xaf$"\x92\xca\xcd'
p593
ssS'_usr_local_lib_python2_7_dist-packages_django_db_models_options'
p594
(dp595
g6
(dp596
g8
S'_usr_local_lib_python2_7_dist-packages_django_db_models_options.html'
p597
sg10
S'/usr/local/lib/python2.7/dist-packages/django/db/models/options'
p598
sg12
g13
(g14
g15
NtRp599
(dp600
g18
I1
sg19
I0
sg20
I373
sg21
I0
sg22
I0
sg23
I99
sg24
I0
sbssg25
S'\\\xd8\x83\x92\x91\xd8pE\xb6_\xfbpO\x89\x0es'
p601
ssS'_usr_local_lib_python2_7_dist-packages_django_utils_deconstruct'
p602
(dp603
g6
(dp604
g8
S'_usr_local_lib_python2_7_dist-packages_django_utils_deconstruct.html'
p605
sg10
S'/usr/local/lib/python2.7/dist-packages/django/utils/deconstruct'
p606
sg12
g13
(g14
g15
NtRp607
(dp608
g18
I1
sg19
I0
sg20
I24
sg21
I0
sg22
I0
sg23
I9
sg24
I0
sbssg25
S'\x95\xc9{eU\xf0\x10\xde\xb9\xc3Mn\x05\xc2\xbdJ'
p609
ssS'_usr_local_lib_python2_7_dist-packages_rest_framework_authtoken_models'
p610
(dp611
g6
(dp612
g8
S'_usr_local_lib_python2_7_dist-packages_rest_framework_authtoken_models.html'
p613
sg10
S'/usr/local/lib/python2.7/dist-packages/rest_framework/authtoken/models'
p614
sg12
g13
(g14
g15
NtRp615
(dp616
g18
I1
sg19
I0
sg20
I21
sg21
I0
sg22
I0
sg23
I5
sg24
I0
sbssg25
S'\xf30\xdfM\x96\xe8\x8bO\x07\xdb\x9a\xc9\x85\xcf.\x07'
p617
ssS'_usr_local_lib_python2_7_dist-packages_rest_framework_utils_formatting'
p618
(dp619
g6
(dp620
g8
S'_usr_local_lib_python2_7_dist-packages_rest_framework_utils_formatting.html'
p621
sg10
S'/usr/local/lib/python2.7/dist-packages/rest_framework/utils/formatting'
p622
sg12
g13
(g14
g15
NtRp623
(dp624
g18
I1
sg19
I0
sg20
I26
sg21
I0
sg22
I0
sg23
I17
sg24
I0
sbssg25
S'k\xc7\x0b\xc0M\xe2\x1a\x06\x1eS\x04\xcc\xa0\x14m`'
p625
ssS'_usr_local_lib_python2_7_dist-packages_django_core_urlresolvers'
p626
(dp627
g6
(dp628
g8
S'_usr_local_lib_python2_7_dist-packages_django_core_urlresolvers.html'
p629
sg10
S'/usr/local/lib/python2.7/dist-packages/django/core/urlresolvers'
p630
sg12
g13
(g14
g15
NtRp631
(dp632
g18
I1
sg19
I0
sg20
I379
sg21
I0
sg22
I0
sg23
I209
sg24
I0
sbssg25
S'\xeb\xe8r\x9a2yG\x08\xd9nH-\xda\xb5ml'
p633
ssS'_usr_local_lib_python2_7_dist-packages_django_db_models_fields___init__'
p634
(dp635
g6
(dp636
g8
S'_usr_local_lib_python2_7_dist-packages_django_db_models_fields___init__.html'
p637
sg10
S'/usr/local/lib/python2.7/dist-packages/django/db/models/fields/__init__'
p638
sg12
g13
(g14
g15
NtRp639
(dp640
g18
I1
sg19
I0
sg20
I1138
sg21
I0
sg22
I0
sg23
I552
sg24
I0
sbssg25
S'\x93\x9e\xac\x1f\xba\x08\x98W0\xde\x816fl]]'
p641
ssS'_usr_local_lib_python2_7_dist-packages_django_middleware_csrf'
p642
(dp643
g6
(dp644
g8
S'_usr_local_lib_python2_7_dist-packages_django_middleware_csrf.html'
p645
sg10
S'/usr/local/lib/python2.7/dist-packages/django/middleware/csrf'
p646
sg12
g13
(g14
g15
NtRp647
(dp648
g18
I1
sg19
I0
sg20
I81
sg21
I0
sg22
I0
sg23
I56
sg24
I0
sbssg25
S'\x9f\xbaI7\x18\xbd\xd1\x91\xea\xb9\r\x8ec\xc2\x9a2'
p649
ssS'_usr_local_lib_python2_7_dist-packages_django_contrib_sites_shortcuts'
p650
(dp651
g6
(dp652
g8
S'_usr_local_lib_python2_7_dist-packages_django_contrib_sites_shortcuts.html'
p653
sg10
S'/usr/local/lib/python2.7/dist-packages/django/contrib/sites/shortcuts'
p654
sg12
g13
(g14
g15
NtRp655
(dp656
g18
I1
sg19
I0
sg20
I8
sg21
I0
sg22
I0
sg23
I5
sg24
I0
sbssg25
S'\xf3D\x82\x96:C\x85P||\xcf;[\xebd\xd7'
p657
ssS'_usr_local_lib_python2_7_dist-packages_django_views_debug'
p658
(dp659
g6
(dp660
g8
S'_usr_local_lib_python2_7_dist-packages_django_views_debug.html'
p661
sg10
S'/usr/local/lib/python2.7/dist-packages/django/views/debug'
p662
sg12
g13
(g14
g15
NtRp663
(dp664
g18
I1
sg19
I0
sg20
I302
sg21
I0
sg22
I0
sg23
I250
sg24
I0
sbssg25
S'#Y\xfa3\x9bq\xce7\xac\xda?]d\x83\x8c\xe5'
p665
ssS'_usr_local_lib_python2_7_dist-packages_django_contrib_sessions_backends_db'
p666
(dp667
g6
(dp668
g8
S'_usr_local_lib_python2_7_dist-packages_django_contrib_sessions_backends_db.html'
p669
sg10
S'/usr/local/lib/python2.7/dist-packages/django/contrib/sessions/backends/db'
p670
sg12
g13
(g14
g15
NtRp671
(dp672
g18
I1
sg19
I0
sg20
I53
sg21
I0
sg22
I0
sg23
I37
sg24
I0
sbssg25
S"\xbc\xea\xbaC\xdcn\xcf@6.'\xaf\x7fU\x13\x9d"
p673
ssS'_usr_local_lib_python2_7_dist-packages_django_contrib_staticfiles_apps'
p674
(dp675
g6
(dp676
g8
S'_usr_local_lib_python2_7_dist-packages_django_contrib_staticfiles_apps.html'
p677
sg10
S'/usr/local/lib/python2.7/dist-packages/django/contrib/staticfiles/apps'
p678
sg12
g13
(g14
g15
NtRp679
(dp680
g18
I1
sg19
I0
sg20
I5
sg21
I0
sg22
I0
sg23
I0
sg24
I0
sbssg25
S'\xdf6O\x8b\x18`\xc3\xa0Uq~:\x12\xf4\x03U'
p681
ssS'_usr_local_lib_python2_7_dist-packages_django_http___init__'
p682
(dp683
g6
(dp684
g8
S'_usr_local_lib_python2_7_dist-packages_django_http___init__.html'
p685
sg10
S'/usr/local/lib/python2.7/dist-packages/django/http/__init__'
p686
sg12
g13
(g14
g15
NtRp687
(dp688
g18
I1
sg19
I0
sg20
I5
sg21
I0
sg22
I0
sg23
I0
sg24
I0
sbssg25
S'\xa1\xe0TLI\xb7\xb2c5+\x1b<]S\xf5\xc7'
p689
ssS'_usr_local_lib_python2_7_dist-packages_django_template_defaultfilters'
p690
(dp691
g6
(dp692
g8
S'_usr_local_lib_python2_7_dist-packages_django_template_defaultfilters.html'
p693
sg10
S'/usr/local/lib/python2.7/dist-packages/django/template/defaultfilters'
p694
sg12
g13
(g14
g15
NtRp695
(dp696
g18
I1
sg19
I0
sg20
I459
sg21
I0
sg22
I0
sg23
I327
sg24
I0
sbssg25
S'\xb3h\xef\xd0K\xb1\x9b\xae\xa5\x13\xef\x0e\xc3\xbe2\x15'
p697
ssS'_usr_local_lib_python2_7_dist-packages_rest_framework_utils___init__'
p698
(dp699
g6
(dp700
g8
S'_usr_local_lib_python2_7_dist-packages_rest_framework_utils___init__.html'
p701
sg10
S'/usr/local/lib/python2.7/dist-packages/rest_framework/utils/__init__'
p702
sg12
g13
(g14
g15
NtRp703
(dp704
g18
I1
sg19
I0
sg20
I0
sg21
I0
sg22
I0
sg23
I0
sg24
I0
sbssg25
S'\xb0\xc8pN\xaf>\xa0\xbaz\x144\xe0A9\xb8?'
p705
ssS'myapp_tests'
p706
(dp707
g6
(dp708
g8
S'myapp_tests.html'
p709
sg10
S'myapp/tests'
p710
sg12
g13
(g14
g15
NtRp711
(dp712
g18
I1
sg19
I0
sg20
I9
sg21
I0
sg22
I0
sg23
I0
sg24
I0
sbssg25
S'\\\x1d7\xc2\x87*Q\xfa\xd6\xd3\x95/\xdb\xf0Q\xba'
p713
ssS'_usr_local_lib_python2_7_dist-packages_rest_framework_renderers'
p714
(dp715
g6
(dp716
g8
S'_usr_local_lib_python2_7_dist-packages_rest_framework_renderers.html'
p717
sg10
S'/usr/local/lib/python2.7/dist-packages/rest_framework/renderers'
p718
sg12
g13
(g14
g15
NtRp719
(dp720
g18
I1
sg19
I0
sg20
I296
sg21
I0
sg22
I0
sg23
I200
sg24
I0
sbssg25
S'\x1eX^4~\xb4\xf1}D\x08\x00\xff\x9c{Bm'
p721
ssS'_usr_local_lib_python2_7_dist-packages_rest_framework_reverse'
p722
(dp723
g6
(dp724
g8
S'_usr_local_lib_python2_7_dist-packages_rest_framework_reverse.html'
p725
sg10
S'/usr/local/lib/python2.7/dist-packages/rest_framework/reverse'
p726
sg12
g13
(g14
g15
NtRp727
(dp728
g18
I1
sg19
I0
sg20
I18
sg21
I0
sg22
I0
sg23
I11
sg24
I0
sbssg25
S'\xd8\xf3\xbbA\xed\x7f\x8dz\xa5\xa0\xda2\x06\xd0\x15\x19'
p729
ssS'_usr_local_lib_python2_7_dist-packages_django_db_migrations_autodetector'
p730
(dp731
g6
(dp732
g8
S'_usr_local_lib_python2_7_dist-packages_django_db_migrations_autodetector.html'
p733
sg10
S'/usr/local/lib/python2.7/dist-packages/django/db/migrations/autodetector'
p734
sg12
g13
(g14
g15
NtRp735
(dp736
g18
I1
sg19
I0
sg20
I527
sg21
I0
sg22
I0
sg23
I487
sg24
I0
sbssg25
S'5\xaeb\xc4b\xadm\x05\xca\xc9\xd3\xbem3\r\x14'
p737
ssS'_usr_local_lib_python2_7_dist-packages_django_core_cache_backends_base'
p738
(dp739
g6
(dp740
g8
S'_usr_local_lib_python2_7_dist-packages_django_core_cache_backends_base.html'
p741
sg10
S'/usr/local/lib/python2.7/dist-packages/django/core/cache/backends/base'
p742
sg12
g13
(g14
g15
NtRp743
(dp744
g18
I1
sg19
I0
sg20
I108
sg21
I0
sg22
I0
sg23
I57
sg24
I0
sbssg25
S'\x95\x00\xe3Ad\xe3\xd3T\xdb\x1abN\xea\x03\xef\x8c'
p745
ssS'_usr_local_lib_python2_7_dist-packages_django_utils_cache'
p746
(dp747
g6
(dp748
g8
S'_usr_local_lib_python2_7_dist-packages_django_utils_cache.html'
p749
sg10
S'/usr/local/lib/python2.7/dist-packages/django/utils/cache'
p750
sg12
g13
(g14
g15
NtRp751
(dp752
g18
I1
sg19
I0
sg20
I133
sg21
I0
sg22
I0
sg23
I109
sg24
I0
sbssg25
S'y\xff\x18\xd6\xfe\xea\xf9\x92\xb3\xad\xc2\xf4W\xd0q\xba'
p753
ssS'_usr_local_lib_python2_7_dist-packages_django_contrib_admin_checks'
p754
(dp755
g6
(dp756
g8
S'_usr_local_lib_python2_7_dist-packages_django_contrib_admin_checks.html'
p757
sg10
S'/usr/local/lib/python2.7/dist-packages/django/contrib/admin/checks'
p758
sg12
g13
(g14
g15
NtRp759
(dp760
g18
I1
sg19
I0
sg20
I399
sg21
I0
sg22
I0
sg23
I209
sg24
I0
sbssg25
S'\x1f\xd3\xb0b\xbb_\xe4\x9c\xad\xcfK\xd7\x06k%\x98'
p761
ssS'_usr_local_lib_python2_7_dist-packages_django_template_smartif'
p762
(dp763
g6
(dp764
g8
S'_usr_local_lib_python2_7_dist-packages_django_template_smartif.html'
p765
sg10
S'/usr/local/lib/python2.7/dist-packages/django/template/smartif'
p766
sg12
g13
(g14
g15
NtRp767
(dp768
g18
I1
sg19
I0
sg20
I104
sg21
I0
sg22
I0
sg23
I61
sg24
I0
sbssg25
S'\xe8\xb0ehs\x0c\x14\xc2\xf0\xa3\x03\xcaa9\xc5\xe2'
p769
ssS'_usr_local_lib_python2_7_dist-packages_django_core_files___init__'
p770
(dp771
g6
(dp772
g8
S'_usr_local_lib_python2_7_dist-packages_django_core_files___init__.html'
p773
sg10
S'/usr/local/lib/python2.7/dist-packages/django/core/files/__init__'
p774
sg12
g13
(g14
g15
NtRp775
(dp776
g18
I1
sg19
I0
sg20
I2
sg21
I0
sg22
I0
sg23
I0
sg24
I0
sbssg25
S'i\xe6\xf12\xa4X\xf0\xf2?\x9aZ\xbb&\xa6\x1f^'
p777
ssS'_usr_local_lib_python2_7_dist-packages_django_contrib_contenttypes_fields'
p778
(dp779
g6
(dp780
g8
S'_usr_local_lib_python2_7_dist-packages_django_contrib_contenttypes_fields.html'
p781
sg10
S'/usr/local/lib/python2.7/dist-packages/django/contrib/contenttypes/fields'
p782
sg12
g13
(g14
g15
NtRp783
(dp784
g18
I1
sg19
I0
sg20
I292
sg21
I0
sg22
I0
sg23
I238
sg24
I0
sbssg25
S'r\x1d\x97\rx\xc1\xe2\x06)f\xf8&\x84\xbc9\xdb'
p785
ssS'_usr_local_lib_python2_7_dist-packages_django_db_models_aggregates'
p786
(dp787
g6
(dp788
g8
S'_usr_local_lib_python2_7_dist-packages_django_db_models_aggregates.html'
p789
sg10
S'/usr/local/lib/python2.7/dist-packages/django/db/models/aggregates'
p790
sg12
g13
(g14
g15
NtRp791
(dp792
g18
I1
sg19
I0
sg20
I33
sg21
I0
sg22
I0
sg23
I11
sg24
I0
sbssg25
S'\x7f\xcbW5_6X\xc6\xac\x82\xa3w\xfd\xc6\xee@'
p793
ssS'_usr_local_lib_python2_7_dist-packages_django_middleware___init__'
p794
(dp795
g6
(dp796
g8
S'_usr_local_lib_python2_7_dist-packages_django_middleware___init__.html'
p797
sg10
S'/usr/local/lib/python2.7/dist-packages/django/middleware/__init__'
p798
sg12
g13
(g14
g15
NtRp799
(dp800
g18
I1
sg19
I0
sg20
I0
sg21
I0
sg22
I0
sg23
I0
sg24
I0
sbssg25
S'\xb0\xc8pN\xaf>\xa0\xbaz\x144\xe0A9\xb8?'
p801
ssS'_usr_local_lib_python2_7_dist-packages_django_contrib_sessions_serializers'
p802
(dp803
g6
(dp804
g8
S'_usr_local_lib_python2_7_dist-packages_django_contrib_sessions_serializers.html'
p805
sg10
S'/usr/local/lib/python2.7/dist-packages/django/contrib/sessions/serializers'
p806
sg12
g13
(g14
g15
NtRp807
(dp808
g18
I1
sg19
I0
sg20
I11
sg21
I0
sg22
I0
sg23
I4
sg24
I0
sbssg25
S'\x1a\xc1\x8d\x0c\x88\xd7#u(\xb4\x10\xcbur\x7fC'
p809
ssS'_usr_local_lib_python2_7_dist-packages_django_apps_registry'
p810
(dp811
g6
(dp812
g8
S'_usr_local_lib_python2_7_dist-packages_django_apps_registry.html'
p813
sg10
S'/usr/local/lib/python2.7/dist-packages/django/apps/registry'
p814
sg12
g13
(g14
g15
NtRp815
(dp816
g18
I1
sg19
I0
sg20
I183
sg21
I0
sg22
I0
sg23
I77
sg24
I0
sbssg25
S'\xcc\x0b\x1c}\xa6\x88\xf1\xbe\xe3\xbe\x1ac\xde\x9b9\xbe'
p817
ssS'_usr_local_lib_python2_7_dist-packages_django_core_exceptions'
p818
(dp819
g6
(dp820
g8
S'_usr_local_lib_python2_7_dist-packages_django_core_exceptions.html'
p821
sg10
S'/usr/local/lib/python2.7/dist-packages/django/core/exceptions'
p822
sg12
g13
(g14
g15
NtRp823
(dp824
g18
I1
sg19
I0
sg20
I87
sg21
I0
sg22
I0
sg23
I47
sg24
I0
sbssg25
S'C\x03u\xd6K\x1c\x9d\x1f\xc40q\xc9\xe2\xf4\x1c?'
p825
ssS'_usr_local_lib_python2_7_dist-packages_django_contrib_sessions_management___init__'
p826
(dp827
g6
(dp828
g8
S'_usr_local_lib_python2_7_dist-packages_django_contrib_sessions_management___init__.html'
p829
sg10
S'/usr/local/lib/python2.7/dist-packages/django/contrib/sessions/management/__init__'
p830
sg12
g13
(g14
g15
NtRp831
(dp832
g18
I1
sg19
I0
sg20
I0
sg21
I0
sg22
I0
sg23
I0
sg24
I0
sbssg25
S'\xb0\xc8pN\xaf>\xa0\xbaz\x144\xe0A9\xb8?'
p833
ssS'_usr_local_lib_python2_7_dist-packages_django_core_files_uploadhandler'
p834
(dp835
g6
(dp836
g8
S'_usr_local_lib_python2_7_dist-packages_django_core_files_uploadhandler.html'
p837
sg10
S'/usr/local/lib/python2.7/dist-packages/django/core/files/uploadhandler'
p838
sg12
g13
(g14
g15
NtRp839
(dp840
g18
I1
sg19
I0
sg20
I78
sg21
I0
sg22
I0
sg23
I42
sg24
I0
sbssg25
S'\xa7\x82\x1f\x02\x19\x1eT\x96=y\xa5bk\xeb\xa1\xbf'
p841
ssS'_usr_local_lib_python2_7_dist-packages_django_core_cache_backends___init__'
p842
(dp843
g6
(dp844
g8
S'_usr_local_lib_python2_7_dist-packages_django_core_cache_backends___init__.html'
p845
sg10
S'/usr/local/lib/python2.7/dist-packages/django/core/cache/backends/__init__'
p846
sg12
g13
(g14
g15
NtRp847
(dp848
g18
I1
sg19
I0
sg20
I0
sg21
I0
sg22
I0
sg23
I0
sg24
I0
sbssg25
S'\xb0\xc8pN\xaf>\xa0\xbaz\x144\xe0A9\xb8?'
p849
ssS'_usr_local_lib_python2_7_dist-packages_django_template_base'
p850
(dp851
g6
(dp852
g8
S'_usr_local_lib_python2_7_dist-packages_django_template_base.html'
p853
sg10
S'/usr/local/lib/python2.7/dist-packages/django/template/base'
p854
sg12
g13
(g14
g15
NtRp855
(dp856
g18
I1
sg19
I0
sg20
I786
sg21
I0
sg22
I0
sg23
I411
sg24
I0
sbssg25
S'\xfcF\x12\x91\\"-:\x99\xf1\x04\x01\xd4`\x1d\x10'
p857
ssS'_usr_local_lib_python2_7_dist-packages_django_core_management_commands___init__'
p858
(dp859
g6
(dp860
g8
S'_usr_local_lib_python2_7_dist-packages_django_core_management_commands___init__.html'
p861
sg10
S'/usr/local/lib/python2.7/dist-packages/django/core/management/commands/__init__'
p862
sg12
g13
(g14
g15
NtRp863
(dp864
g18
I1
sg19
I0
sg20
I0
sg21
I0
sg22
I0
sg23
I0
sg24
I0
sbssg25
S'\xb0\xc8pN\xaf>\xa0\xbaz\x144\xe0A9\xb8?'
p865
ssS'_usr_local_lib_python2_7_dist-packages_django_conf_global_settings'
p866
(dp867
g6
(dp868
g8
S'_usr_local_lib_python2_7_dist-packages_django_conf_global_settings.html'
p869
sg10
S'/usr/local/lib/python2.7/dist-packages/django/conf/global_settings'
p870
sg12
g13
(g14
g15
NtRp871
(dp872
g18
I1
sg19
I0
sg20
I130
sg21
I0
sg22
I0
sg23
I0
sg24
I0
sbssg25
S'J\xc2\xf1\xd7w\xb92\x9eM\xb7E\xcd\xcdq\xe2\xe2'
p873
ssS'_usr_local_lib_python2_7_dist-packages_django_core_files_base'
p874
(dp875
g6
(dp876
g8
S'_usr_local_lib_python2_7_dist-packages_django_core_files_base.html'
p877
sg10
S'/usr/local/lib/python2.7/dist-packages/django/core/files/base'
p878
sg12
g13
(g14
g15
NtRp879
(dp880
g18
I1
sg19
I0
sg20
I105
sg21
I0
sg22
I0
sg23
I70
sg24
I0
sbssg25
S'e\x0e5\xc8\xfa7\x81&\x89\xc6q\xc5\xc06$\x8f'
p881
ssS'_usr_local_lib_python2_7_dist-packages_django_forms_forms'
p882
(dp883
g6
(dp884
g8
S'_usr_local_lib_python2_7_dist-packages_django_forms_forms.html'
p885
sg10
S'/usr/local/lib/python2.7/dist-packages/django/forms/forms'
p886
sg12
g13
(g14
g15
NtRp887
(dp888
g18
I1
sg19
I0
sg20
I325
sg21
I0
sg22
I0
sg23
I240
sg24
I0
sbssg25
S'\xb0\xa7gp\x91\x07@\xd5\xeb\x8aJ\xc0\x06?\xd7*'
p889
ssS'_usr_local_lib_python2_7_dist-packages_django_utils___init__'
p890
(dp891
g6
(dp892
g8
S'_usr_local_lib_python2_7_dist-packages_django_utils___init__.html'
p893
sg10
S'/usr/local/lib/python2.7/dist-packages/django/utils/__init__'
p894
sg12
g13
(g14
g15
NtRp895
(dp896
g18
I1
sg19
I0
sg20
I0
sg21
I0
sg22
I0
sg23
I0
sg24
I0
sbssg25
S'\xb0\xc8pN\xaf>\xa0\xbaz\x144\xe0A9\xb8?'
p897
ssS'_usr_local_lib_python2_7_dist-packages_django_utils_text'
p898
(dp899
g6
(dp900
g8
S'_usr_local_lib_python2_7_dist-packages_django_utils_text.html'
p901
sg10
S'/usr/local/lib/python2.7/dist-packages/django/utils/text'
p902
sg12
g13
(g14
g15
NtRp903
(dp904
g18
I1
sg19
I0
sg20
I239
sg21
I0
sg22
I0
sg23
I168
sg24
I0
sbssg25
S'\xad*\xa1\xb6\xf6\\\x9d`\x99\xb7V\x9cko\xa0R'
p905
ssS'_usr_local_lib_python2_7_dist-packages_django_contrib_admin_decorators'
p906
(dp907
g6
(dp908
g8
S'_usr_local_lib_python2_7_dist-packages_django_contrib_admin_decorators.html'
p909
sg10
S'/usr/local/lib/python2.7/dist-packages/django/contrib/admin/decorators'
p910
sg12
g13
(g14
g15
NtRp911
(dp912
g18
I1
sg19
I0
sg20
I12
sg21
I0
sg22
I0
sg23
I11
sg24
I0
sbssg25
S'\xedELQ\xae\x96\xa0\xb9n\xf1i\xf2`36\xe3'
p913
ssS'_usr_local_lib_python2_7_dist-packages_django_utils_translation___init__'
p914
(dp915
g6
(dp916
g8
S'_usr_local_lib_python2_7_dist-packages_django_utils_translation___init__.html'
p917
sg10
S'/usr/local/lib/python2.7/dist-packages/django/utils/translation/__init__'
p918
sg12
g13
(g14
g15
NtRp919
(dp920
g18
I1
sg19
I0
sg20
I115
sg21
I0
sg22
I0
sg23
I52
sg24
I0
sbssg25
S'i\xcf\x109\xf7!\xd7:<\xa6\xd7\xa2\x89\x1a><'
p921
ssS'_usr_local_lib_python2_7_dist-packages_django_utils_safestring'
p922
(dp923
g6
(dp924
g8
S'_usr_local_lib_python2_7_dist-packages_django_utils_safestring.html'
p925
sg10
S'/usr/local/lib/python2.7/dist-packages/django/utils/safestring'
p926
sg12
g13
(g14
g15
NtRp927
(dp928
g18
I1
sg19
I0
sg20
I63
sg21
I0
sg22
I0
sg23
I28
sg24
I0
sbssg25
S'\xa5\x80\xb5\x98%\x01^V\xdb\xae\x9c\x8c\xe4t\xd8}'
p929
ssS'_usr_local_lib_python2_7_dist-packages_django_http_utils'
p930
(dp931
g6
(dp932
g8
S'_usr_local_lib_python2_7_dist-packages_django_http_utils.html'
p933
sg10
S'/usr/local/lib/python2.7/dist-packages/django/http/utils'
p934
sg12
g13
(g14
g15
NtRp935
(dp936
g18
I1
sg19
I0
sg20
I15
sg21
I0
sg22
I0
sg23
I8
sg24
I0
sbssg25
S'\xeb\x9da9\xc0\x0b\x1d$\t\x0cY\xdb\x92\x90\xdb['
p937
ssS'_usr_local_lib_python2_7_dist-packages_django_db_models_sql_query'
p938
(dp939
g6
(dp940
g8
S'_usr_local_lib_python2_7_dist-packages_django_db_models_sql_query.html'
p941
sg10
S'/usr/local/lib/python2.7/dist-packages/django/db/models/sql/query'
p942
sg12
g13
(g14
g15
NtRp943
(dp944
g18
I1
sg19
I0
sg20
I1063
sg21
I0
sg22
I0
sg23
I605
sg24
I0
sbssg25
S'\x1f*2h\x8a\xcekJ\x83D\xbex\xa8\xf7~\x7f'
p945
ssS'_usr_local_lib_python2_7_dist-packages_django_utils_functional'
p946
(dp947
g6
(dp948
g8
S'_usr_local_lib_python2_7_dist-packages_django_utils_functional.html'
p949
sg10
S'/usr/local/lib/python2.7/dist-packages/django/utils/functional'
p950
sg12
g13
(g14
g15
NtRp951
(dp952
g18
I1
sg19
I0
sg20
I232
sg21
I0
sg22
I0
sg23
I104
sg24
I0
sbssg25
S'\xf4\x00\xea)\xa9\xb1\xfc\x8e0\x98t\xa6\x12\xbf\xe6\x9f'
p953
ssS'_usr_local_lib_python2_7_dist-packages_django_contrib_admin_templatetags___init__'
p954
(dp955
g6
(dp956
g8
S'_usr_local_lib_python2_7_dist-packages_django_contrib_admin_templatetags___init__.html'
p957
sg10
S'/usr/local/lib/python2.7/dist-packages/django/contrib/admin/templatetags/__init__'
p958
sg12
g13
(g14
g15
NtRp959
(dp960
g18
I1
sg19
I0
sg20
I0
sg21
I0
sg22
I0
sg23
I0
sg24
I0
sbssg25
S'\xb0\xc8pN\xaf>\xa0\xbaz\x144\xe0A9\xb8?'
p961
ssS'_usr_local_lib_python2_7_dist-packages_django_db_backends_mysql_validation'
p962
(dp963
g6
(dp964
g8
S'_usr_local_lib_python2_7_dist-packages_django_db_backends_mysql_validation.html'
p965
sg10
S'/usr/local/lib/python2.7/dist-packages/django/db/backends/mysql/validation'
p966
sg12
g13
(g14
g15
NtRp967
(dp968
g18
I1
sg19
I0
sg20
I13
sg21
I0
sg22
I0
sg23
I2
sg24
I0
sbssg25
S'\xd2\xca77W\xed6\x07\xd5;\x15Cx\x92\xc5|'
p969
ssS'_usr_local_lib_python2_7_dist-packages_django_core_management_commands_migrate'
p970
(dp971
g6
(dp972
g8
S'_usr_local_lib_python2_7_dist-packages_django_core_management_commands_migrate.html'
p973
sg10
S'/usr/local/lib/python2.7/dist-packages/django/core/management/commands/migrate'
p974
sg12
g13
(g14
g15
NtRp975
(dp976
g18
I1
sg19
I0
sg20
I214
sg21
I0
sg22
I0
sg23
I89
sg24
I0
sbssg25
S'F\x84$<\xc9\x0c\xed\xe7O\xa6\t\x13\x9c\xb9\xc0\xa2'
p977
ssS'_usr_local_lib_python2_7_dist-packages_django_utils_html_parser'
p978
(dp979
g6
(dp980
g8
S'_usr_local_lib_python2_7_dist-packages_django_utils_html_parser.html'
p981
sg10
S'/usr/local/lib/python2.7/dist-packages/django/utils/html_parser'
p982
sg12
g13
(g14
g15
NtRp983
(dp984
g18
I1
sg19
I0
sg20
I86
sg21
I0
sg22
I0
sg23
I77
sg24
I0
sbssg25
S"\x03\xf6e\xc9'R\xa3B\xa6\x0f\\m\x04\xc0\xb6\xf8"
p985
ssS'_usr_local_lib_python2_7_dist-packages_django_contrib_messages_storage_session'
p986
(dp987
g6
(dp988
g8
S'_usr_local_lib_python2_7_dist-packages_django_contrib_messages_storage_session.html'
p989
sg10
S'/usr/local/lib/python2.7/dist-packages/django/contrib/messages/storage/session'
p990
sg12
g13
(g14
g15
NtRp991
(dp992
g18
I1
sg19
I0
sg20
I23
sg21
I0
sg22
I0
sg23
I10
sg24
I0
sbssg25
S'\xc4\xc3\x134\xbcf\xf1\x1c\x92Jn\xf2dw(\x97'
p993
ssS'_usr_local_lib_python2_7_dist-packages_django_apps_config'
p994
(dp995
g6
(dp996
g8
S'_usr_local_lib_python2_7_dist-packages_django_apps_config.html'
p997
sg10
S'/usr/local/lib/python2.7/dist-packages/django/apps/config'
p998
sg12
g13
(g14
g15
NtRp999
(dp1000
g18
I1
sg19
I0
sg20
I84
sg21
I0
sg22
I0
sg23
I23
sg24
I0
sbssg25
S'\xa3_\xad\x91\xdf\x82\x12W\xc5m\x87K\x1e\xe1\xffh'
p1001
ssS'_usr_local_lib_python2_7_dist-packages_django_db_models_sql_constants'
p1002
(dp1003
g6
(dp1004
g8
S'_usr_local_lib_python2_7_dist-packages_django_db_models_sql_constants.html'
p1005
sg10
S'/usr/local/lib/python2.7/dist-packages/django/db/models/sql/constants'
p1006
sg12
g13
(g14
g15
NtRp1007
(dp1008
g18
I1
sg19
I0
sg20
I12
sg21
I0
sg22
I0
sg23
I0
sg24
I0
sbssg25
S'\xb7\xc7\xf7\xef\x1f\x9c\xdcb\xab4\xd4\xff\xfbU\x11\xef'
p1009
ssS'_usr_local_lib_python2_7_dist-packages_django_db_backends_schema'
p1010
(dp1011
g6
(dp1012
g8
S'_usr_local_lib_python2_7_dist-packages_django_db_backends_schema.html'
p1013
sg10
S'/usr/local/lib/python2.7/dist-packages/django/db/backends/schema'
p1014
sg12
g13
(g14
g15
NtRp1015
(dp1016
g18
I1
sg19
I0
sg20
I406
sg21
I0
sg22
I0
sg23
I226
sg24
I0
sbssg25
S'V\xf2\xe1`\x13\xba\x01\xe8\xb5s\x95 \xc4A\xf0<'
p1017
ssS'_usr_local_lib_python2_7_dist-packages_django_views_decorators_debug'
p1018
(dp1019
g6
(dp1020
g8
S'_usr_local_lib_python2_7_dist-packages_django_views_decorators_debug.html'
p1021
sg10
S'/usr/local/lib/python2.7/dist-packages/django/views/decorators/debug'
p1022
sg12
g13
(g14
g15
NtRp1023
(dp1024
g18
I1
sg19
I0
sg20
I21
sg21
I0
sg22
I0
sg23
I13
sg24
I0
sbssg25
S'%\x95J\xd11\x82{ay\x0ep\xc46\xc8\xbcB'
p1025
ssS'_usr_local_lib_python2_7_dist-packages_django_template___init__'
p1026
(dp1027
g6
(dp1028
g8
S'_usr_local_lib_python2_7_dist-packages_django_template___init__.html'
p1029
sg10
S'/usr/local/lib/python2.7/dist-packages/django/template/__init__'
p1030
sg12
g13
(g14
g15
NtRp1031
(dp1032
g18
I1
sg19
I0
sg20
I6
sg21
I0
sg22
I0
sg23
I0
sg24
I0
sbssg25
S'm$\x1etj_\xaf\n\xf1\x02\xc3a\x19\x00c\x99'
p1033
ssS'_usr_local_lib_python2_7_dist-packages_django_contrib_contenttypes_models'
p1034
(dp1035
g6
(dp1036
g8
S'_usr_local_lib_python2_7_dist-packages_django_contrib_contenttypes_models.html'
p1037
sg10
S'/usr/local/lib/python2.7/dist-packages/django/contrib/contenttypes/models'
p1038
sg12
g13
(g14
g15
NtRp1039
(dp1040
g18
I1
sg19
I0
sg20
I105
sg21
I0
sg22
I0
sg23
I54
sg24
I0
sbssg25
S'}C\xfa@\x90\x82\xaefy\xfc\xd1L\x1f\xe9\xae\x8f'
p1041
ssS'_usr_local_lib_python2_7_dist-packages_django_core_management_commands_flush'
p1042
(dp1043
g6
(dp1044
g8
S'_usr_local_lib_python2_7_dist-packages_django_core_management_commands_flush.html'
p1045
sg10
S'/usr/local/lib/python2.7/dist-packages/django/core/management/commands/flush'
p1046
sg12
g13
(g14
g15
NtRp1047
(dp1048
g18
I1
sg19
I0
sg20
I57
sg21
I0
sg22
I0
sg23
I10
sg24
I0
sbssg25
S"\n\xc7\xc4\x01\xd6\x00\xe3M\xc5\xda;'\xc8N\xa2\xd5"
p1049
ssS'_usr_local_lib_python2_7_dist-packages_django_db_backends_utils'
p1050
(dp1051
g6
(dp1052
g8
S'_usr_local_lib_python2_7_dist-packages_django_db_backends_utils.html'
p1053
sg10
S'/usr/local/lib/python2.7/dist-packages/django/db/backends/utils'
p1054
sg12
g13
(g14
g15
NtRp1055
(dp1056
g18
I1
sg19
I0
sg20
I120
sg21
I0
sg22
I0
sg23
I73
sg24
I0
sbssg25
S'\x94 EW\xc7\x10\x029\x1f\x91O6\xe0\x96 +'
p1057
ssS'_usr_local_lib_python2_7_dist-packages_django_db_migrations_operations_models'
p1058
(dp1059
g6
(dp1060
g8
S'_usr_local_lib_python2_7_dist-packages_django_db_migrations_operations_models.html'
p1061
sg10
S'/usr/local/lib/python2.7/dist-packages/django/db/migrations/operations/models'
p1062
sg12
g13
(g14
g15
NtRp1063
(dp1064
g18
I1
sg19
I0
sg20
I227
sg21
I0
sg22
I0
sg23
I140
sg24
I0
sbssg25
S'\xa3\x12\xa71#\xac\xf2\xb9\x0b\x1e\xf9\xd2g\xfa\x0e\xf8'
p1065
ssS'_usr_local_lib_python2_7_dist-packages_django_db_models_signals'
p1066
(dp1067
g6
(dp1068
g8
S'_usr_local_lib_python2_7_dist-packages_django_db_models_signals.html'
p1069
sg10
S'/usr/local/lib/python2.7/dist-packages/django/db/models/signals'
p1070
sg12
g13
(g14
g15
NtRp1071
(dp1072
g18
I1
sg19
I0
sg20
I43
sg21
I0
sg22
I0
sg23
I15
sg24
I0
sbssg25
S'j\x92\x99\x93\x81=o\x9c\x96:Vt\x1c`(J'
p1073
ssS'_usr_local_lib_python2_7_dist-packages_django_db_backends_mysql_compiler'
p1074
(dp1075
g6
(dp1076
g8
S'_usr_local_lib_python2_7_dist-packages_django_db_backends_mysql_compiler.html'
p1077
sg10
S'/usr/local/lib/python2.7/dist-packages/django/db/backends/mysql/compiler'
p1078
sg12
g13
(g14
g15
NtRp1079
(dp1080
g18
I1
sg19
I0
sg20
I27
sg21
I0
sg22
I0
sg23
I4
sg24
I0
sbssg25
S"\x01\x84I6\xe2I\x7f$'rG\xa3\x1f\x93\xa2\x85"
p1081
ssS'_usr_local_lib_python2_7_dist-packages_django_core_checks_registry'
p1082
(dp1083
g6
(dp1084
g8
S'_usr_local_lib_python2_7_dist-packages_django_core_checks_registry.html'
p1085
sg10
S'/usr/local/lib/python2.7/dist-packages/django/core/checks/registry'
p1086
sg12
g13
(g14
g15
NtRp1087
(dp1088
g18
I1
sg19
I0
sg20
I36
sg21
I0
sg22
I0
sg23
I3
sg24
I0
sbssg25
S'\xcf\xa5\x81\xd4\x12\x83r\x89o\x19\x0e\x1ed\xee\xc5\xfe'
p1089
ssS'_usr_local_lib_python2_7_dist-packages_django_contrib_admin_sites'
p1090
(dp1091
g6
(dp1092
g8
S'_usr_local_lib_python2_7_dist-packages_django_contrib_admin_sites.html'
p1093
sg10
S'/usr/local/lib/python2.7/dist-packages/django/contrib/admin/sites'
p1094
sg12
g13
(g14
g15
NtRp1095
(dp1096
g18
I1
sg19
I0
sg20
I220
sg21
I0
sg22
I0
sg23
I126
sg24
I0
sbssg25
S'\xdd@\xf7\x1a\x1a\xad\x96\x8f\x11\x1c\x8a\xcd\xae\xf0\xfa\x87'
p1097
ssS'_usr_local_lib_python2_7_dist-packages_rest_framework_routers'
p1098
(dp1099
g6
(dp1100
g8
S'_usr_local_lib_python2_7_dist-packages_rest_framework_routers.html'
p1101
sg10
S'/usr/local/lib/python2.7/dist-packages/rest_framework/routers'
p1102
sg12
g13
(g14
g15
NtRp1103
(dp1104
g18
I1
sg19
I0
sg20
I136
sg21
I0
sg22
I0
sg23
I91
sg24
I0
sbssg25
S'\xbc\xf0\xdb\x88\x0b\x15\x15\xb4\xa8[\x9aF\xf0R\x13\x81'
p1105
ssS'_usr_local_lib_python2_7_dist-packages_rest_framework_utils_breadcrumbs'
p1106
(dp1107
g6
(dp1108
g8
S'_usr_local_lib_python2_7_dist-packages_rest_framework_utils_breadcrumbs.html'
p1109
sg10
S'/usr/local/lib/python2.7/dist-packages/rest_framework/utils/breadcrumbs'
p1110
sg12
g13
(g14
g15
NtRp1111
(dp1112
g18
I1
sg19
I0
sg20
I28
sg21
I0
sg22
I0
sg23
I25
sg24
I0
sbssg25
S'\xae\xdd\xbb\x9f\x8c\x94\xc5\xe2\x13?\xdc\x19%\xaa\xee\xdf'
p1113
ssS'_usr_local_lib_python2_7_dist-packages_django_views_generic_dates'
p1114
(dp1115
g6
(dp1116
g8
S'_usr_local_lib_python2_7_dist-packages_django_views_generic_dates.html'
p1117
sg10
S'/usr/local/lib/python2.7/dist-packages/django/views/generic/dates'
p1118
sg12
g13
(g14
g15
NtRp1119
(dp1120
g18
I1
sg19
I0
sg20
I320
sg21
I0
sg22
I0
sg23
I217
sg24
I0
sbssg25
S'\xcdeq\x15j\xce2c\rw%q\x9dI7\x0c'
p1121
ssS'_usr_local_lib_python2_7_dist-packages_django_core_checks_model_checks'
p1122
(dp1123
g6
(dp1124
g8
S'_usr_local_lib_python2_7_dist-packages_django_core_checks_model_checks.html'
p1125
sg10
S'/usr/local/lib/python2.7/dist-packages/django/core/checks/model_checks'
p1126
sg12
g13
(g14
g15
NtRp1127
(dp1128
g18
I1
sg19
I0
sg20
I28
sg21
I0
sg22
I0
sg23
I6
sg24
I0
sbssg25
S"O\xbd\xc7'\xc3\taD\xe2.\x7f\xef\x16kH\xd6"
p1129
ssS'_usr_local_lib_python2_7_dist-packages_django_core_serializers___init__'
p1130
(dp1131
g6
(dp1132
g8
S'_usr_local_lib_python2_7_dist-packages_django_core_serializers___init__.html'
p1133
sg10
S'/usr/local/lib/python2.7/dist-packages/django/core/serializers/__init__'
p1134
sg12
g13
(g14
g15
NtRp1135
(dp1136
g18
I1
sg19
I0
sg20
I64
sg21
I0
sg22
I0
sg23
I26
sg24
I0
sbssg25
S'\xe4\xf0+I\xb2\x82\xfe<\x02\x07\x060\xcd\xd1v\xe8'
p1137
ssS'_usr_local_lib_python2_7_dist-packages_django_contrib_sessions_apps'
p1138
(dp1139
g6
(dp1140
g8
S'_usr_local_lib_python2_7_dist-packages_django_contrib_sessions_apps.html'
p1141
sg10
S'/usr/local/lib/python2.7/dist-packages/django/contrib/sessions/apps'
p1142
sg12
g13
(g14
g15
NtRp1143
(dp1144
g18
I1
sg19
I0
sg20
I5
sg21
I0
sg22
I0
sg23
I0
sg24
I0
sbssg25
S'qn\x8d\t\xff\x06\xb1\x06\xd5\xa6s#\x1a\x85\x05}'
p1145
ssS'_usr_local_lib_python2_7_dist-packages_rest_framework_urlpatterns'
p1146
(dp1147
g6
(dp1148
g8
S'_usr_local_lib_python2_7_dist-packages_rest_framework_urlpatterns.html'
p1149
sg10
S'/usr/local/lib/python2.7/dist-packages/rest_framework/urlpatterns'
p1150
sg12
g13
(g14
g15
NtRp1151
(dp1152
g18
I1
sg19
I0
sg20
I31
sg21
I0
sg22
I0
sg23
I25
sg24
I0
sbssg25
S'f&\xa3q\xc8\xefD\x15\xdb\xeb\xa7\xed\x16\r\xd2\xb6'
p1153
ssS'_usr_local_lib_python2_7_dist-packages_django_contrib_admin_helpers'
p1154
(dp1155
g6
(dp1156
g8
S'_usr_local_lib_python2_7_dist-packages_django_contrib_admin_helpers.html'
p1157
sg10
S'/usr/local/lib/python2.7/dist-packages/django/contrib/admin/helpers'
p1158
sg12
g13
(g14
g15
NtRp1159
(dp1160
g18
I1
sg19
I0
sg20
I229
sg21
I0
sg22
I0
sg23
I168
sg24
I0
sbssg25
S'"\x12\xfc\xfa-h\xfa\x18\xb6\xd4\x14y\n\xc3S\x16'
p1161
ssS'_usr_local_lib_python2_7_dist-packages_django_db_migrations_operations_fields'
p1162
(dp1163
g6
(dp1164
g8
S'_usr_local_lib_python2_7_dist-packages_django_db_migrations_operations_fields.html'
p1165
sg10
S'/usr/local/lib/python2.7/dist-packages/django/db/migrations/operations/fields'
p1166
sg12
g13
(g14
g15
NtRp1167
(dp1168
g18
I1
sg19
I0
sg20
I128
sg21
I0
sg22
I0
sg23
I90
sg24
I0
sbssg25
S'\xcd&xh\xad\xcd\xf3\x1c\xf3u\xbb\x91mK\xb3u'
p1169
ssS'_usr_local_lib_python2_7_dist-packages_django_utils_six'
p1170
(dp1171
g6
(dp1172
g8
S'_usr_local_lib_python2_7_dist-packages_django_utils_six.html'
p1173
sg10
S'/usr/local/lib/python2.7/dist-packages/django/utils/six'
p1174
sg12
g13
(g14
g15
NtRp1175
(dp1176
g18
I1
sg19
I0
sg20
I442
sg21
I0
sg22
I0
sg23
I190
sg24
I0
sbssg25
S'\x9e\xbb\xd6\xae\xe0\x92ph\xa1{K~\x1a\xbc \xca'
p1177
ssS'_usr_local_lib_python2_7_dist-packages_django_core_serializers_python'
p1178
(dp1179
g6
(dp1180
g8
S'_usr_local_lib_python2_7_dist-packages_django_core_serializers_python.html'
p1181
sg10
S'/usr/local/lib/python2.7/dist-packages/django/core/serializers/python'
p1182
sg12
g13
(g14
g15
NtRp1183
(dp1184
g18
I1
sg19
I0
sg20
I89
sg21
I0
sg22
I0
sg23
I58
sg24
I0
sbssg25
S'\x8a\xc9\xb2\xfb\xe9\x9e\xd2*\xf5)\xe2\x1d\x15\xf6\x16\x1c'
p1185
ssS'_usr_local_lib_python2_7_dist-packages_django_views_generic_detail'
p1186
(dp1187
g6
(dp1188
g8
S'_usr_local_lib_python2_7_dist-packages_django_views_generic_detail.html'
p1189
sg10
S'/usr/local/lib/python2.7/dist-packages/django/views/generic/detail'
p1190
sg12
g13
(g14
g15
NtRp1191
(dp1192
g18
I1
sg19
I0
sg20
I77
sg21
I0
sg22
I0
sg23
I52
sg24
I0
sbssg25
S'\xe0E\x82\x85\x82:\xdb\x81\xf3x\xa4\x17\x82\x83\xc0Z'
p1193
ssS'_usr_local_lib_python2_7_dist-packages_django_contrib_admin_migrations_0001_initial'
p1194
(dp1195
g6
(dp1196
g8
S'_usr_local_lib_python2_7_dist-packages_django_contrib_admin_migrations_0001_initial.html'
p1197
sg10
S'/usr/local/lib/python2.7/dist-packages/django/contrib/admin/migrations/0001_initial'
p1198
sg12
g13
(g14
g15
NtRp1199
(dp1200
g18
I1
sg19
I0
sg20
I6
sg21
I0
sg22
I0
sg23
I0
sg24
I0
sbssg25
S'ZC\x06\xbd\x8c\x9a\xd7\xbf\xb4(M\xcc\xc59\xbaH'
p1201
ssS'_usr_local_lib_python2_7_dist-packages_django_views_static'
p1202
(dp1203
g6
(dp1204
g8
S'_usr_local_lib_python2_7_dist-packages_django_views_static.html'
p1205
sg10
S'/usr/local/lib/python2.7/dist-packages/django/views/static'
p1206
sg12
g13
(g14
g15
NtRp1207
(dp1208
g18
I1
sg19
I0
sg20
I73
sg21
I0
sg22
I0
sg23
I57
sg24
I0
sbssg25
S'\xe0T\xea\x18IE6\xbf\xdd\x9fHs\x87?\xa5?'
p1209
ssS'_usr_local_lib_python2_7_dist-packages_django_db_backends_mysql_base'
p1210
(dp1211
g6
(dp1212
g8
S'_usr_local_lib_python2_7_dist-packages_django_db_backends_mysql_base.html'
p1213
sg10
S'/usr/local/lib/python2.7/dist-packages/django/db/backends/mysql/base'
p1214
sg12
g13
(g14
g15
NtRp1215
(dp1216
g18
I1
sg19
I0
sg20
I312
sg21
I0
sg22
I0
sg23
I119
sg24
I0
sbssg25
S'\xef\xfc\x0ee\xa9\xf4\xdc\\\xa0\xa1\x88\x04\x87\xc7n~'
p1217
ssS'_usr_local_lib_python2_7_dist-packages_django_contrib_messages_storage_base'
p1218
(dp1219
g6
(dp1220
g8
S'_usr_local_lib_python2_7_dist-packages_django_contrib_messages_storage_base.html'
p1221
sg10
S'/usr/local/lib/python2.7/dist-packages/django/contrib/messages/storage/base'
p1222
sg12
g13
(g14
g15
NtRp1223
(dp1224
g18
I1
sg19
I0
sg20
I84
sg21
I0
sg22
I0
sg23
I47
sg24
I0
sbssg25
S'\x02\xa9lVS\x9b\x93\xebI\xe1\x93\x0fp\xd3z\xd9'
p1225
ssS'_usr_local_lib_python2_7_dist-packages_django_contrib_auth_migrations___init__'
p1226
(dp1227
g6
(dp1228
g8
S'_usr_local_lib_python2_7_dist-packages_django_contrib_auth_migrations___init__.html'
p1229
sg10
S'/usr/local/lib/python2.7/dist-packages/django/contrib/auth/migrations/__init__'
p1230
sg12
g13
(g14
g15
NtRp1231
(dp1232
g18
I1
sg19
I0
sg20
I0
sg21
I0
sg22
I0
sg23
I0
sg24
I0
sbssg25
S'\xb0\xc8pN\xaf>\xa0\xbaz\x144\xe0A9\xb8?'
p1233
ssS'_usr_local_lib_python2_7_dist-packages_rest_framework_status'
p1234
(dp1235
g6
(dp1236
g8
S'_usr_local_lib_python2_7_dist-packages_rest_framework_status.html'
p1237
sg10
S'/usr/local/lib/python2.7/dist-packages/rest_framework/status'
p1238
sg12
g13
(g14
g15
NtRp1239
(dp1240
g18
I1
sg19
I0
sg20
I56
sg21
I0
sg22
I0
sg23
I5
sg24
I0
sbssg25
S'ZIHm\xfcI\x87SO2\xe8\xfad\x9f|\x81'
p1241
ssS'_usr_local_lib_python2_7_dist-packages_django_contrib_staticfiles_management___init__'
p1242
(dp1243
g6
(dp1244
g8
S'_usr_local_lib_python2_7_dist-packages_django_contrib_staticfiles_management___init__.html'
p1245
sg10
S'/usr/local/lib/python2.7/dist-packages/django/contrib/staticfiles/management/__init__'
p1246
sg12
g13
(g14
g15
NtRp1247
(dp1248
g18
I1
sg19
I0
sg20
I0
sg21
I0
sg22
I0
sg23
I0
sg24
I0
sbssg25
S'\xb0\xc8pN\xaf>\xa0\xbaz\x144\xe0A9\xb8?'
p1249
ssS'_usr_local_lib_python2_7_dist-packages_django_views_decorators_csrf'
p1250
(dp1251
g6
(dp1252
g8
S'_usr_local_lib_python2_7_dist-packages_django_views_decorators_csrf.html'
p1253
sg10
S'/usr/local/lib/python2.7/dist-packages/django/views/decorators/csrf'
p1254
sg12
g13
(g14
g15
NtRp1255
(dp1256
g18
I1
sg19
I0
sg20
I27
sg21
I0
sg22
I0
sg23
I5
sg24
I0
sbssg25
S'v\xf2\xd4\x1bf\xa3V\xe7f\xd8\x82a&\xd4\xf8$'
p1257
ssS'_usr_local_lib_python2_7_dist-packages_django_templatetags_static'
p1258
(dp1259
g6
(dp1260
g8
S'_usr_local_lib_python2_7_dist-packages_django_templatetags_static.html'
p1261
sg10
S'/usr/local/lib/python2.7/dist-packages/django/templatetags/static'
p1262
sg12
g13
(g14
g15
NtRp1263
(dp1264
g18
I1
sg19
I0
sg20
I68
sg21
I0
sg22
I0
sg23
I35
sg24
I0
sbssg25
S'\xd4T(\xf0\xe3\x8a(\xb6\xb9R\xeb^\xeb3\xbaw'
p1265
ssS'_usr_local_lib_python2_7_dist-packages_django_utils_dates'
p1266
(dp1267
g6
(dp1268
g8
S'_usr_local_lib_python2_7_dist-packages_django_utils_dates.html'
p1269
sg10
S'/usr/local/lib/python2.7/dist-packages/django/utils/dates'
p1270
sg12
g13
(g14
g15
NtRp1271
(dp1272
g18
I1
sg19
I0
sg20
I9
sg21
I0
sg22
I0
sg23
I0
sg24
I0
sbssg25
S'\xe5\xc8\x1e\xf3\x93K:ws\xfe\x7fBXc\xa9\xe1'
p1273
ssS'_usr_local_lib_python2_7_dist-packages_django_db_backends_mysql_introspection'
p1274
(dp1275
g6
(dp1276
g8
S'_usr_local_lib_python2_7_dist-packages_django_db_backends_mysql_introspection.html'
p1277
sg10
S'/usr/local/lib/python2.7/dist-packages/django/db/backends/mysql/introspection'
p1278
sg12
g13
(g14
g15
NtRp1279
(dp1280
g18
I1
sg19
I0
sg20
I80
sg21
I0
sg22
I0
sg23
I62
sg24
I0
sbssg25
S"T,&\xc2\x0e\x89\xd6\xecE'\x05`j\x0f\x97\x16"
p1281
ssS'_usr_local_lib_python2_7_dist-packages_django_http_request'
p1282
(dp1283
g6
(dp1284
g8
S'_usr_local_lib_python2_7_dist-packages_django_http_request.html'
p1285
sg10
S'/usr/local/lib/python2.7/dist-packages/django/http/request'
p1286
sg12
g13
(g14
g15
NtRp1287
(dp1288
g18
I1
sg19
I0
sg20
I306
sg21
I0
sg22
I0
sg23
I196
sg24
I0
sbssg25
S'\xc7\x81\xbf\x95\x11\xb5n\xcan\xbc\xad\xdc\xab\xa7\xf6B'
p1289
ssS'_usr_local_lib_python2_7_dist-packages_rest_framework_utils_representation'
p1290
(dp1291
g6
(dp1292
g8
S'_usr_local_lib_python2_7_dist-packages_rest_framework_utils_representation.html'
p1293
sg10
S'/usr/local/lib/python2.7/dist-packages/rest_framework/utils/representation'
p1294
sg12
g13
(g14
g15
NtRp1295
(dp1296
g18
I1
sg19
I0
sg20
I61
sg21
I0
sg22
I0
sg23
I50
sg24
I0
sbssg25
S'\xe7\xd3\xfc=D\xd8\x98{\xf3#KL\xf2* \xa1'
p1297
ssS'_usr_local_lib_python2_7_dist-packages_django_views_generic_edit'
p1298
(dp1299
g6
(dp1300
g8
S'_usr_local_lib_python2_7_dist-packages_django_views_generic_edit.html'
p1301
sg10
S'/usr/local/lib/python2.7/dist-packages/django/views/generic/edit'
p1302
sg12
g13
(g14
g15
NtRp1303
(dp1304
g18
I1
sg19
I0
sg20
I113
sg21
I0
sg22
I0
sg23
I62
sg24
I0
sbssg25
S'\xeb\x1f\xe7\x8bw\x0c\xbdt\x98.\x88\xff\x9aH\x01\xad'
p1305
ssS'_usr_local_lib_python2_7_dist-packages_django_core_management_commands_createcachetable'
p1306
(dp1307
g6
(dp1308
g8
S'_usr_local_lib_python2_7_dist-packages_django_core_management_commands_createcachetable.html'
p1309
sg10
S'/usr/local/lib/python2.7/dist-packages/django/core/management/commands/createcachetable'
p1310
sg12
g13
(g14
g15
NtRp1311
(dp1312
g18
I1
sg19
I0
sg20
I60
sg21
I0
sg22
I0
sg23
I40
sg24
I0
sbssg25
S'k\tK\x93\x11Z#\xa7\xcf\x84\xd7\xba6\xa5$\xa6'
p1313
ssS'_usr_local_lib_python2_7_dist-packages_django_utils_regex_helper'
p1314
(dp1315
g6
(dp1316
g8
S'_usr_local_lib_python2_7_dist-packages_django_utils_regex_helper.html'
p1317
sg10
S'/usr/local/lib/python2.7/dist-packages/django/utils/regex_helper'
p1318
sg12
g13
(g14
g15
NtRp1319
(dp1320
g18
I1
sg19
I0
sg20
I188
sg21
I0
sg22
I0
sg23
I175
sg24
I0
sbssg25
S"\xb6x\x0b\x958IZ\xd5\x91\x14\xad0'j\x99L"
p1321
ssS'_usr_local_lib_python2_7_dist-packages_rest_framework_utils_html'
p1322
(dp1323
g6
(dp1324
g8
S'_usr_local_lib_python2_7_dist-packages_rest_framework_utils_html.html'
p1325
sg10
S'/usr/local/lib/python2.7/dist-packages/rest_framework/utils/html'
p1326
sg12
g13
(g14
g15
NtRp1327
(dp1328
g18
I1
sg19
I0
sg20
I29
sg21
I0
sg22
I0
sg23
I24
sg24
I0
sbssg25
S"D#g\x15\xb4\xe7\x07\xfd\xb6\xae\xf9'\xe0eRq"
p1329
ssS'_usr_local_lib_python2_7_dist-packages_django_utils_http'
p1330
(dp1331
g6
(dp1332
g8
S'_usr_local_lib_python2_7_dist-packages_django_utils_http.html'
p1333
sg10
S'/usr/local/lib/python2.7/dist-packages/django/utils/http'
p1334
sg12
g13
(g14
g15
NtRp1335
(dp1336
g18
I1
sg19
I0
sg20
I135
sg21
I0
sg22
I0
sg23
I86
sg24
I0
sbssg25
S'\r\xf0\xdf\x18\xa5|\xbf\x15H\xbe\xdfx\x8dJ\xcfD'
p1337
ssS'_usr_local_lib_python2_7_dist-packages_django_core_serializers_json'
p1338
(dp1339
g6
(dp1340
g8
S'_usr_local_lib_python2_7_dist-packages_django_core_serializers_json.html'
p1341
sg10
S'/usr/local/lib/python2.7/dist-packages/django/core/serializers/json'
p1342
sg12
g13
(g14
g15
NtRp1343
(dp1344
g18
I1
sg19
I0
sg20
I76
sg21
I0
sg22
I0
sg23
I36
sg24
I0
sbssg25
S'=\xd5y\x8eRJQ\xd9E\xe1\x99\x1f\xb68\rD'
p1345
ssS'_usr_local_lib_python2_7_dist-packages_django_contrib_admin_templatetags_admin_urls'
p1346
(dp1347
g6
(dp1348
g8
S'_usr_local_lib_python2_7_dist-packages_django_contrib_admin_templatetags_admin_urls.html'
p1349
sg10
S'/usr/local/lib/python2.7/dist-packages/django/contrib/admin/templatetags/admin_urls'
p1350
sg12
g13
(g14
g15
NtRp1351
(dp1352
g18
I1
sg19
I0
sg20
I38
sg21
I0
sg22
I0
sg23
I28
sg24
I0
sbssg25
S'l\xdc\xf3\xa1\xe2\x7f\xe4{\xcbg\x07\xdaQ\xe6\xecF'
p1353
ssS'_usr_local_lib_python2_7_dist-packages_django_utils_translation_trans_real'
p1354
(dp1355
g6
(dp1356
g8
S'_usr_local_lib_python2_7_dist-packages_django_utils_translation_trans_real.html'
p1357
sg10
S'/usr/local/lib/python2.7/dist-packages/django/utils/translation/trans_real'
p1358
sg12
g13
(g14
g15
NtRp1359
(dp1360
g18
I1
sg19
I0
sg20
I432
sg21
I0
sg22
I0
sg23
I288
sg24
I0
sbssg25
S'\xa2\x95A\xdd\xaa\xd8\xd3\x9d\x0e\x16q\xd5\x001\x85\x89'
p1361
ssS'_usr_local_lib_python2_7_dist-packages_django_core_handlers___init__'
p1362
(dp1363
g6
(dp1364
g8
S'_usr_local_lib_python2_7_dist-packages_django_core_handlers___init__.html'
p1365
sg10
S'/usr/local/lib/python2.7/dist-packages/django/core/handlers/__init__'
p1366
sg12
g13
(g14
g15
NtRp1367
(dp1368
g18
I1
sg19
I0
sg20
I0
sg21
I0
sg22
I0
sg23
I0
sg24
I0
sbssg25
S'\xb0\xc8pN\xaf>\xa0\xbaz\x144\xe0A9\xb8?'
p1369
ssS'_usr_local_lib_python2_7_dist-packages_django_utils_baseconv'
p1370
(dp1371
g6
(dp1372
g8
S'_usr_local_lib_python2_7_dist-packages_django_utils_baseconv.html'
p1373
sg10
S'/usr/local/lib/python2.7/dist-packages/django/utils/baseconv'
p1374
sg12
g13
(g14
g15
NtRp1375
(dp1376
g18
I1
sg19
I0
sg20
I48
sg21
I0
sg22
I0
sg23
I25
sg24
I0
sbssg25
S'\xb9\x9eaD\x8d=\x88\x80N5+D\xfcID\x8e'
p1377
ssS'_usr_local_lib_python2_7_dist-packages_django_utils_deprecation'
p1378
(dp1379
g6
(dp1380
g8
S'_usr_local_lib_python2_7_dist-packages_django_utils_deprecation.html'
p1381
sg10
S'/usr/local/lib/python2.7/dist-packages/django/utils/deprecation'
p1382
sg12
g13
(g14
g15
NtRp1383
(dp1384
g18
I1
sg19
I0
sg20
I38
sg21
I0
sg22
I0
sg23
I5
sg24
I0
sbssg25
S'\x12\xcd&\r%\xd7\xed\xc7.\\&\xc5\xd5\xd9`\xc4'
p1385
ssS'_usr_local_lib_python2_7_dist-packages_django_views_generic___init__'
p1386
(dp1387
g6
(dp1388
g8
S'_usr_local_lib_python2_7_dist-packages_django_views_generic___init__.html'
p1389
sg10
S'/usr/local/lib/python2.7/dist-packages/django/views/generic/__init__'
p1390
sg12
g13
(g14
g15
NtRp1391
(dp1392
g18
I1
sg19
I0
sg20
I8
sg21
I0
sg22
I0
sg23
I0
sg24
I0
sbssg25
S'\x085\xecF\t\xd0\x7f\x040\x8e\x8e`\xf2q!\xdf'
p1393
ssS'_usr_local_lib_python2_7_dist-packages_rest_framework_authentication'
p1394
(dp1395
g6
(dp1396
g8
S'_usr_local_lib_python2_7_dist-packages_rest_framework_authentication.html'
p1397
sg10
S'/usr/local/lib/python2.7/dist-packages/rest_framework/authentication'
p1398
sg12
g13
(g14
g15
NtRp1399
(dp1400
g18
I1
sg19
I0
sg20
I83
sg21
I0
sg22
I0
sg23
I47
sg24
I0
sbssg25
S"\x0cI5GL|'\x9c9\xda\xa6\t\xe0\xd2\xde\xc0"
p1401
ssS'_usr_local_lib_python2_7_dist-packages_django_contrib_auth_models'
p1402
(dp1403
g6
(dp1404
g8
S'_usr_local_lib_python2_7_dist-packages_django_contrib_auth_models.html'
p1405
sg10
S'/usr/local/lib/python2.7/dist-packages/django/contrib/auth/models'
p1406
sg12
g13
(g14
g15
NtRp1407
(dp1408
g18
I1
sg19
I0
sg20
I236
sg21
I0
sg22
I0
sg23
I98
sg24
I0
sbssg25
S'\x94\xd9\xbfl\xbb\x90.\xcb\xe3=j\xca\x06\x1b\x1d\x99'
p1409
ssS'_usr_local_lib_python2_7_dist-packages_rest_framework_generics'
p1410
(dp1411
g6
(dp1412
g8
S'_usr_local_lib_python2_7_dist-packages_rest_framework_generics.html'
p1413
sg10
S'/usr/local/lib/python2.7/dist-packages/rest_framework/generics'
p1414
sg12
g13
(g14
g15
NtRp1415
(dp1416
g18
I1
sg19
I0
sg20
I101
sg21
I0
sg22
I0
sg23
I52
sg24
I0
sbssg25
S'\xbbN\xbf\xfc\x0b\x1e\xea\xdc\xf1)\xeab\xdc\x8dk@'
p1417
ssS'_usr_local_lib_python2_7_dist-packages_django_core_files_move'
p1418
(dp1419
g6
(dp1420
g8
S'_usr_local_lib_python2_7_dist-packages_django_core_files_move.html'
p1421
sg10
S'/usr/local/lib/python2.7/dist-packages/django/core/files/move'
p1422
sg12
g13
(g14
g15
NtRp1423
(dp1424
g18
I1
sg19
I0
sg20
I47
sg21
I0
sg22
I0
sg23
I40
sg24
I0
sbssg25
S"\xc7'\x0c \x9acO\x9dkd\x13\xb9\x01a\xa4."
p1425
ssS'_usr_local_lib_python2_7_dist-packages_django_template_debug'
p1426
(dp1427
g6
(dp1428
g8
S'_usr_local_lib_python2_7_dist-packages_django_template_debug.html'
p1429
sg10
S'/usr/local/lib/python2.7/dist-packages/django/template/debug'
p1430
sg12
g13
(g14
g15
NtRp1431
(dp1432
g18
I1
sg19
I0
sg20
I81
sg21
I0
sg22
I0
sg23
I30
sg24
I0
sbssg25
S'$\x15\x95\x87\xc8,,\x1d#*\xa1\xa0"\xd89\xf0'
p1433
ssS'_usr_local_lib_python2_7_dist-packages_django_contrib_contenttypes_management'
p1434
(dp1435
g6
(dp1436
g8
S'_usr_local_lib_python2_7_dist-packages_django_contrib_contenttypes_management.html'
p1437
sg10
S'/usr/local/lib/python2.7/dist-packages/django/contrib/contenttypes/management'
p1438
sg12
g13
(g14
g15
NtRp1439
(dp1440
g18
I1
sg19
I0
sg20
I45
sg21
I0
sg22
I0
sg23
I20
sg24
I0
sbssg25
S'\xc3\xdae\xb5$\r\x91\xfa\x8f\xee\xa4I\xbf1\x87\xe3'
p1441
ssS'_usr_local_lib_python2_7_dist-packages_django_core_paginator'
p1442
(dp1443
g6
(dp1444
g8
S'_usr_local_lib_python2_7_dist-packages_django_core_paginator.html'
p1445
sg10
S'/usr/local/lib/python2.7/dist-packages/django/core/paginator'
p1446
sg12
g13
(g14
g15
NtRp1447
(dp1448
g18
I1
sg19
I0
sg20
I90
sg21
I0
sg22
I0
sg23
I57
sg24
I0
sbssg25
S'\x9b\rH\xc5\xb0\x92P\x1a\xec\x08b(\xa0W\xb6\x0e'
p1449
ssS'_usr_local_lib_python2_7_dist-packages_django_contrib_auth_migrations_0001_initial'
p1450
(dp1451
g6
(dp1452
g8
S'_usr_local_lib_python2_7_dist-packages_django_contrib_auth_migrations_0001_initial.html'
p1453
sg10
S'/usr/local/lib/python2.7/dist-packages/django/contrib/auth/migrations/0001_initial'
p1454
sg12
g13
(g14
g15
NtRp1455
(dp1456
g18
I1
sg19
I0
sg20
I7
sg21
I0
sg22
I0
sg23
I0
sg24
I0
sbssg25
S'B\xa7\x03s\xbdMW&\xc6\x16\xf7)\x82\xc2\xcb\x8c'
p1457
ssS'_usr_local_lib_python2_7_dist-packages_django_core_management_color'
p1458
(dp1459
g6
(dp1460
g8
S'_usr_local_lib_python2_7_dist-packages_django_core_management_color.html'
p1461
sg10
S'/usr/local/lib/python2.7/dist-packages/django/core/management/color'
p1462
sg12
g13
(g14
g15
NtRp1463
(dp1464
g18
I1
sg19
I0
sg20
I30
sg21
I0
sg22
I0
sg23
I3
sg24
I0
sbssg25
S'5.\x06\xfc%\xf2Zo[\x94\xe8\xb3F\xdd\x8e\xb6'
p1465
ssS'_usr_local_lib_python2_7_dist-packages_django_core_serializers_xml_serializer'
p1466
(dp1467
g6
(dp1468
g8
S'_usr_local_lib_python2_7_dist-packages_django_core_serializers_xml_serializer.html'
p1469
sg10
S'/usr/local/lib/python2.7/dist-packages/django/core/serializers/xml_serializer'
p1470
sg12
g13
(g14
g15
NtRp1471
(dp1472
g18
I1
sg19
I0
sg20
I212
sg21
I0
sg22
I0
sg23
I165
sg24
I0
sbssg25
S'\x99\xb0\x92\x8cQ\xa4k\x1b\x04\n\xa2\x85HZG\x94'
p1473
ssS'_usr_local_lib_python2_7_dist-packages_django_http_cookie'
p1474
(dp1475
g6
(dp1476
g8
S'_usr_local_lib_python2_7_dist-packages_django_http_cookie.html'
p1477
sg10
S'/usr/local/lib/python2.7/dist-packages/django/http/cookie'
p1478
sg12
g13
(g14
g15
NtRp1479
(dp1480
g18
I1
sg19
I0
sg20
I55
sg21
I0
sg22
I0
sg23
I35
sg24
I0
sbssg25
S'\xef;\x11n\xc5\x00H\x9e_J\xae\x89\xc3\x1e\xe8\x04'
p1481
ssS'_usr_local_lib_python2_7_dist-packages_django_middleware_clickjacking'
p1482
(dp1483
g6
(dp1484
g8
S'_usr_local_lib_python2_7_dist-packages_django_middleware_clickjacking.html'
p1485
sg10
S'/usr/local/lib/python2.7/dist-packages/django/middleware/clickjacking'
p1486
sg12
g13
(g14
g15
NtRp1487
(dp1488
g18
I1
sg19
I0
sg20
I11
sg21
I0
sg22
I0
sg23
I2
sg24
I0
sbssg25
S'=\x9dl\xe3\xe0\xd3\xfew\x1eY\x96\x14xEx\xe1'
p1489
ssS'_usr_local_lib_python2_7_dist-packages_rest_framework_exceptions'
p1490
(dp1491
g6
(dp1492
g8
S'_usr_local_lib_python2_7_dist-packages_rest_framework_exceptions.html'
p1493
sg10
S'/usr/local/lib/python2.7/dist-packages/rest_framework/exceptions'
p1494
sg12
g13
(g14
g15
NtRp1495
(dp1496
g18
I1
sg19
I0
sg20
I79
sg21
I0
sg22
I0
sg23
I30
sg24
I0
sbssg25
S'\xa1\xd2"\x90F\xb7\x07\xe7N\xd2\xcf)e\xd0\x17n'
p1497
ssS'_usr_local_lib_python2_7_dist-packages_django_db_transaction'
p1498
(dp1499
g6
(dp1500
g8
S'_usr_local_lib_python2_7_dist-packages_django_db_transaction.html'
p1501
sg10
S'/usr/local/lib/python2.7/dist-packages/django/db/transaction'
p1502
sg12
g13
(g14
g15
NtRp1503
(dp1504
g18
I1
sg19
I0
sg20
I207
sg21
I0
sg22
I0
sg23
I116
sg24
I0
sbssg25
S'\xadu\x19\xc8 \x0b\xa4P&\x98\xf2?\x8d3"\x06'
p1505
ssS'_usr_local_lib_python2_7_dist-packages_django_template_loader'
p1506
(dp1507
g6
(dp1508
g8
S'_usr_local_lib_python2_7_dist-packages_django_template_loader.html'
p1509
sg10
S'/usr/local/lib/python2.7/dist-packages/django/template/loader'
p1510
sg12
g13
(g14
g15
NtRp1511
(dp1512
g18
I1
sg19
I0
sg20
I95
sg21
I0
sg22
I0
sg23
I33
sg24
I0
sbssg25
S'\xdcA\x9f/c\x04]\xe5\xb4\x87/\xa6,\xb5\xf37'
p1513
ssS'_usr_local_lib_python2_7_dist-packages_django_forms_widgets'
p1514
(dp1515
g6
(dp1516
g8
S'_usr_local_lib_python2_7_dist-packages_django_forms_widgets.html'
p1517
sg10
S'/usr/local/lib/python2.7/dist-packages/django/forms/widgets'
p1518
sg12
g13
(g14
g15
NtRp1519
(dp1520
g18
I1
sg19
I0
sg20
I508
sg21
I0
sg22
I0
sg23
I307
sg24
I0
sbssg25
S'\x84\xddk\xd5y\x84&G\xd7\xb3>o\x81\xd6+#'
p1521
ssS'_usr_local_lib_python2_7_dist-packages_django_core_mail___init__'
p1522
(dp1523
g6
(dp1524
g8
S'_usr_local_lib_python2_7_dist-packages_django_core_mail___init__.html'
p1525
sg10
S'/usr/local/lib/python2.7/dist-packages/django/core/mail/__init__'
p1526
sg12
g13
(g14
g15
NtRp1527
(dp1528
g18
I1
sg19
I0
sg20
I33
sg21
I0
sg22
I0
sg23
I22
sg24
I0
sbssg25
S'\x0b\xec~\x01VJ\x10\x14\xe9-\xf8]Y\x16I\xc8'
p1529
ssS'_usr_local_lib_python2_7_dist-packages_django_utils_dateformat'
p1530
(dp1531
g6
(dp1532
g8
S'_usr_local_lib_python2_7_dist-packages_django_utils_dateformat.html'
p1533
sg10
S'/usr/local/lib/python2.7/dist-packages/django/utils/dateformat'
p1534
sg12
g13
(g14
g15
NtRp1535
(dp1536
g18
I1
sg19
I0
sg20
I184
sg21
I0
sg22
I0
sg23
I124
sg24
I0
sbssg25
S'\x84\xcb10\x90\x17\x8f7\\z\xeb\xfa\x90\x99\xe0o'
p1537
ssS'_usr_local_lib_python2_7_dist-packages_rest_framework_utils_model_meta'
p1538
(dp1539
g6
(dp1540
g8
S'_usr_local_lib_python2_7_dist-packages_rest_framework_utils_model_meta.html'
p1541
sg10
S'/usr/local/lib/python2.7/dist-packages/rest_framework/utils/model_meta'
p1542
sg12
g13
(g14
g15
NtRp1543
(dp1544
g18
I1
sg19
I0
sg20
I64
sg21
I0
sg22
I0
sg23
I48
sg24
I0
sbssg25
S'v\x01\xb0mt\x98Ya\xb0+u~f2\x19\xbc'
p1545
ssS'_usr_local_lib_python2_7_dist-packages_django_contrib_contenttypes_migrations___init__'
p1546
(dp1547
g6
(dp1548
g8
S'_usr_local_lib_python2_7_dist-packages_django_contrib_contenttypes_migrations___init__.html'
p1549
sg10
S'/usr/local/lib/python2.7/dist-packages/django/contrib/contenttypes/migrations/__init__'
p1550
sg12
g13
(g14
g15
NtRp1551
(dp1552
g18
I1
sg19
I0
sg20
I0
sg21
I0
sg22
I0
sg23
I0
sg24
I0
sbssg25
S'\xb0\xc8pN\xaf>\xa0\xbaz\x144\xe0A9\xb8?'
p1553
ssS'_usr_local_lib_python2_7_dist-packages_django_core_wsgi'
p1554
(dp1555
g6
(dp1556
g8
S'_usr_local_lib_python2_7_dist-packages_django_core_wsgi.html'
p1557
sg10
S'/usr/local/lib/python2.7/dist-packages/django/core/wsgi'
p1558
sg12
g13
(g14
g15
NtRp1559
(dp1560
g18
I1
sg19
I0
sg20
I5
sg21
I0
sg22
I0
sg23
I2
sg24
I0
sbssg25
S'\xf1tQ4\xb0\x8f=\xf6P\xf8\xaaM\xd0\x17\r9'
p1561
ssS'_usr_local_lib_python2_7_dist-packages_django_contrib_messages_storage_fallback'
p1562
(dp1563
g6
(dp1564
g8
S'_usr_local_lib_python2_7_dist-packages_django_contrib_messages_storage_fallback.html'
p1565
sg10
S'/usr/local/lib/python2.7/dist-packages/django/contrib/messages/storage/fallback'
p1566
sg12
g13
(g14
g15
NtRp1567
(dp1568
g18
I1
sg19
I0
sg20
I29
sg21
I0
sg22
I0
sg23
I18
sg24
I0
sbssg25
S'}\xc4*\xaa>b\xd2\xbb\xb7RHVH\x9a\xbe\xde'
p1569
ssS'_usr_local_lib_python2_7_dist-packages_django_db_migrations_operations_special'
p1570
(dp1571
g6
(dp1572
g8
S'_usr_local_lib_python2_7_dist-packages_django_db_migrations_operations_special.html'
p1573
sg10
S'/usr/local/lib/python2.7/dist-packages/django/db/migrations/operations/special'
p1574
sg12
g13
(g14
g15
NtRp1575
(dp1576
g18
I1
sg19
I0
sg20
I72
sg21
I0
sg22
I0
sg23
I49
sg24
I0
sbssg25
S'\xb0-\x1e\xf5u\xc6\x1f\xa5\xb3\x0fSR\xfd[\xfaA'
p1577
ssS'_usr_local_lib_python2_7_dist-packages_django_conf___init__'
p1578
(dp1579
g6
(dp1580
g8
S'_usr_local_lib_python2_7_dist-packages_django_conf___init__.html'
p1581
sg10
S'/usr/local/lib/python2.7/dist-packages/django/conf/__init__'
p1582
sg12
g13
(g14
g15
NtRp1583
(dp1584
g18
I1
sg19
I0
sg20
I88
sg21
I0
sg22
I0
sg23
I30
sg24
I0
sbssg25
S'^\xe7\xe2\xc3m?\x91\x88#!4\xfb=\xd0\x993'
p1585
ssS'_usr_local_lib_python2_7_dist-packages_django_contrib_sites_requests'
p1586
(dp1587
g6
(dp1588
g8
S'_usr_local_lib_python2_7_dist-packages_django_contrib_sites_requests.html'
p1589
sg10
S'/usr/local/lib/python2.7/dist-packages/django/contrib/sites/requests'
p1590
sg12
g13
(g14
g15
NtRp1591
(dp1592
g18
I1
sg19
I0
sg20
I12
sg21
I0
sg22
I0
sg23
I4
sg24
I0
sbssg25
S'\xb0\xee.{\x9e\xdf\xf0\xb20\xc0\xda\xe0h\xe0N('
p1593
ssS'_usr_local_lib_python2_7_dist-packages_django_test_html'
p1594
(dp1595
g6
(dp1596
g8
S'_usr_local_lib_python2_7_dist-packages_django_test_html.html'
p1597
sg10
S'/usr/local/lib/python2.7/dist-packages/django/test/html'
p1598
sg12
g13
(g14
g15
NtRp1599
(dp1600
g18
I1
sg19
I0
sg20
I167
sg21
I0
sg22
I0
sg23
I128
sg24
I0
sbssg25
S'\xd4\xe6\xc8-\xa5\x9f1[\xb3\xd4\xfc{(3\xa6\xd0'
p1601
ssS'_usr_local_lib_python2_7_dist-packages_django_utils_timezone'
p1602
(dp1603
g6
(dp1604
g8
S'_usr_local_lib_python2_7_dist-packages_django_utils_timezone.html'
p1605
sg10
S'/usr/local/lib/python2.7/dist-packages/django/utils/timezone'
p1606
sg12
g13
(g14
g15
NtRp1607
(dp1608
g18
I1
sg19
I0
sg20
I145
sg21
I0
sg22
I0
sg23
I78
sg24
I0
sbssg25
S'\x93.\xe1\x14\xc7{R\xfb\xa6\x17f&CQq\x8f'
p1609
ssS'_usr_local_lib_python2_7_dist-packages_django_core_servers_basehttp'
p1610
(dp1611
g6
(dp1612
g8
S'_usr_local_lib_python2_7_dist-packages_django_core_servers_basehttp.html'
p1613
sg10
S'/usr/local/lib/python2.7/dist-packages/django/core/servers/basehttp'
p1614
sg12
g13
(g14
g15
NtRp1615
(dp1616
g18
I1
sg19
I0
sg20
I93
sg21
I0
sg22
I0
sg23
I62
sg24
I0
sbssg25
S't\x92p\xb8\x7f+\xbc)\x9c\xd7\n0J\xc8\xdd\xb7'
p1617
ssS'_usr_local_lib_python2_7_dist-packages_django_contrib_contenttypes_migrations_0001_initial'
p1618
(dp1619
g6
(dp1620
g8
S'_usr_local_lib_python2_7_dist-packages_django_contrib_contenttypes_migrations_0001_initial.html'
p1621
sg10
S'/usr/local/lib/python2.7/dist-packages/django/contrib/contenttypes/migrations/0001_initial'
p1622
sg12
g13
(g14
g15
NtRp1623
(dp1624
g18
I1
sg19
I0
sg20
I5
sg21
I0
sg22
I0
sg23
I0
sg24
I0
sbssg25
S'\xbf\xb6U\xe1\xc8Hm\xa2E\x04\xd4%\xf3\x96\x8c\xa0'
p1625
ssS'_usr_local_lib_python2_7_dist-packages_rest_framework_templatetags___init__'
p1626
(dp1627
g6
(dp1628
g8
S'_usr_local_lib_python2_7_dist-packages_rest_framework_templatetags___init__.html'
p1629
sg10
S'/usr/local/lib/python2.7/dist-packages/rest_framework/templatetags/__init__'
p1630
sg12
g13
(g14
g15
NtRp1631
(dp1632
g18
I1
sg19
I0
sg20
I0
sg21
I0
sg22
I0
sg23
I0
sg24
I0
sbssg25
S'\xb0\xc8pN\xaf>\xa0\xbaz\x144\xe0A9\xb8?'
p1633
ssS'_usr_local_lib_python2_7_dist-packages_django_core_files_images'
p1634
(dp1635
g6
(dp1636
g8
S'_usr_local_lib_python2_7_dist-packages_django_core_files_images.html'
p1637
sg10
S'/usr/local/lib/python2.7/dist-packages/django/core/files/images'
p1638
sg12
g13
(g14
g15
NtRp1639
(dp1640
g18
I1
sg19
I0
sg20
I43
sg21
I0
sg22
I0
sg23
I34
sg24
I0
sbssg25
S'\xedy\xf6\x81\xcb\xa7p\x92Y\x83\xa2\x1a{\xb9\x91('
p1641
ssS'_usr_local_lib_python2_7_dist-packages_django_db_utils'
p1642
(dp1643
g6
(dp1644
g8
S'_usr_local_lib_python2_7_dist-packages_django_db_utils.html'
p1645
sg10
S'/usr/local/lib/python2.7/dist-packages/django/db/utils'
p1646
sg12
g13
(g14
g15
NtRp1647
(dp1648
g18
I1
sg19
I0
sg20
I204
sg21
I0
sg22
I0
sg23
I72
sg24
I0
sbssg25
S'\x99/\xae@\xd4\x88 1e\x8a\xdf\x90\xb2\xca\xfcW'
p1649
ssS'_usr_local_lib_python2_7_dist-packages_rest_framework_authtoken___init__'
p1650
(dp1651
g6
(dp1652
g8
S'_usr_local_lib_python2_7_dist-packages_rest_framework_authtoken___init__.html'
p1653
sg10
S'/usr/local/lib/python2.7/dist-packages/rest_framework/authtoken/__init__'
p1654
sg12
g13
(g14
g15
NtRp1655
(dp1656
g18
I1
sg19
I0
sg20
I0
sg21
I0
sg22
I0
sg23
I0
sg24
I0
sbssg25
S'\xb0\xc8pN\xaf>\xa0\xbaz\x144\xe0A9\xb8?'
p1657
ssS'_usr_local_lib_python2_7_dist-packages_django_core_management_commands_loaddata'
p1658
(dp1659
g6
(dp1660
g8
S'_usr_local_lib_python2_7_dist-packages_django_core_management_commands_loaddata.html'
p1661
sg10
S'/usr/local/lib/python2.7/dist-packages/django/core/management/commands/loaddata'
p1662
sg12
g13
(g14
g15
NtRp1663
(dp1664
g18
I1
sg19
I0
sg20
I173
sg21
I0
sg22
I0
sg23
I69
sg24
I0
sbssg25
S'\x8f\xb9\xeb\xc5\xa38t\x7f\xd1BD|s\xb2\x98\x80'
p1665
ssS'_usr_local_lib_python2_7_dist-packages_rest_framework_parsers'
p1666
(dp1667
g6
(dp1668
g8
S'_usr_local_lib_python2_7_dist-packages_rest_framework_parsers.html'
p1669
sg10
S'/usr/local/lib/python2.7/dist-packages/rest_framework/parsers'
p1670
sg12
g13
(g14
g15
NtRp1671
(dp1672
g18
I1
sg19
I0
sg20
I115
sg21
I0
sg22
I0
sg23
I83
sg24
I0
sbssg25
S'yf\x8d4\xd9\xba\x86\xf5f\xcb\x1c\x01\xa1\xb8\x85x'
p1673
ssS'_usr_local_lib_python2_7_dist-packages_django_contrib_messages_utils'
p1674
(dp1675
g6
(dp1676
g8
S'_usr_local_lib_python2_7_dist-packages_django_contrib_messages_utils.html'
p1677
sg10
S'/usr/local/lib/python2.7/dist-packages/django/contrib/messages/utils'
p1678
sg12
g13
(g14
g15
NtRp1679
(dp1680
g18
I1
sg19
I0
sg20
I6
sg21
I0
sg22
I0
sg23
I0
sg24
I0
sbssg25
S'\x8e\xc7\xac\x98\xd8\x97}YJ\xae\xe1\x07\xa0\x03\xca\xd0'
p1681
ssS'_usr_local_lib_python2_7_dist-packages_django_db_migrations_operations_base'
p1682
(dp1683
g6
(dp1684
g8
S'_usr_local_lib_python2_7_dist-packages_django_db_migrations_operations_base.html'
p1685
sg10
S'/usr/local/lib/python2.7/dist-packages/django/db/migrations/operations/base'
p1686
sg12
g13
(g14
g15
NtRp1687
(dp1688
g18
I1
sg19
I0
sg20
I33
sg21
I0
sg22
I0
sg23
I10
sg24
I0
sbssg25
S'\x06\xbe\xcc\x9e\xfes\xc1\xf0R>\x93\xb9N \x1b\xde'
p1689
ssS'_usr_local_lib_python2_7_dist-packages_django_db_models_sql_datastructures'
p1690
(dp1691
g6
(dp1692
g8
S'_usr_local_lib_python2_7_dist-packages_django_db_models_sql_datastructures.html'
p1693
sg10
S'/usr/local/lib/python2.7/dist-packages/django/db/models/sql/datastructures'
p1694
sg12
g13
(g14
g15
NtRp1695
(dp1696
g18
I1
sg19
I0
sg20
I48
sg21
I0
sg22
I0
sg23
I21
sg24
I0
sbssg25
S'\xc9\x0f\xde\xedt\x99\xd2O\xa18\xfd\xde,\x8a~]'
p1697
ssS'_usr_local_lib_python2_7_dist-packages_django_contrib_admin_options'
p1698
(dp1699
g6
(dp1700
g8
S'_usr_local_lib_python2_7_dist-packages_django_contrib_admin_options.html'
p1701
sg10
S'/usr/local/lib/python2.7/dist-packages/django/contrib/admin/options'
p1702
sg12
g13
(g14
g15
NtRp1703
(dp1704
g18
I1
sg19
I0
sg20
I961
sg21
I0
sg22
I0
sg23
I735
sg24
I0
sbssg25
S'&\x84UT:\xf1\xf6Uf\x08\x03\xf9\xab\xf7S\xd8'
p1705
ssS'_usr_local_lib_python2_7_dist-packages_django_db_models_constants'
p1706
(dp1707
g6
(dp1708
g8
S'_usr_local_lib_python2_7_dist-packages_django_db_models_constants.html'
p1709
sg10
S'/usr/local/lib/python2.7/dist-packages/django/db/models/constants'
p1710
sg12
g13
(g14
g15
NtRp1711
(dp1712
g18
I1
sg19
I0
sg20
I1
sg21
I0
sg22
I0
sg23
I0
sg24
I0
sbssg25
S'\xb9g\xea"\xa4\xe6,\x8a\xed<\xce\xce_\x8fz\x0f'
p1713
ssS'_usr_local_lib_python2_7_dist-packages_django_contrib_sessions_middleware'
p1714
(dp1715
g6
(dp1716
g8
S'_usr_local_lib_python2_7_dist-packages_django_contrib_sessions_middleware.html'
p1717
sg10
S'/usr/local/lib/python2.7/dist-packages/django/contrib/sessions/middleware'
p1718
sg12
g13
(g14
g15
NtRp1719
(dp1720
g18
I1
sg19
I0
sg20
I31
sg21
I0
sg22
I0
sg23
I12
sg24
I0
sbssg25
S'\xeel\xd1\xab\xd3\x15\xf9\xfe\xa9\xbbvg\x92\xcd-\x99'
p1721
ssS'_usr_local_lib_python2_7_dist-packages_django_db_models_expressions'
p1722
(dp1723
g6
(dp1724
g8
S'_usr_local_lib_python2_7_dist-packages_django_db_models_expressions.html'
p1725
sg10
S'/usr/local/lib/python2.7/dist-packages/django/db/models/expressions'
p1726
sg12
g13
(g14
g15
NtRp1727
(dp1728
g18
I1
sg19
I0
sg20
I99
sg21
I0
sg22
I0
sg23
I52
sg24
I0
sbssg25
S'\x99\x01A\xfby\x87H\x06\x1f\xb8\x00#T\xc4\xbf\xb4'
p1729
ssS'_usr_local_lib_python2_7_dist-packages_django_contrib_auth_apps'
p1730
(dp1731
g6
(dp1732
g8
S'_usr_local_lib_python2_7_dist-packages_django_contrib_auth_apps.html'
p1733
sg10
S'/usr/local/lib/python2.7/dist-packages/django/contrib/auth/apps'
p1734
sg12
g13
(g14
g15
NtRp1735
(dp1736
g18
I1
sg19
I0
sg20
I9
sg21
I0
sg22
I0
sg23
I0
sg24
I0
sbssg25
S'\xf2\xd1d\x96\xae%F\x8d\x93\xbe\t\xe9\x82Jc\x10'
p1737
ssS'_usr_local_lib_python2_7_dist-packages_django_contrib_admin_utils'
p1738
(dp1739
g6
(dp1740
g8
S'_usr_local_lib_python2_7_dist-packages_django_contrib_admin_utils.html'
p1741
sg10
S'/usr/local/lib/python2.7/dist-packages/django/contrib/admin/utils'
p1742
sg12
g13
(g14
g15
NtRp1743
(dp1744
g18
I1
sg19
I0
sg20
I290
sg21
I0
sg22
I0
sg23
I233
sg24
I0
sbssg25
S'\x97\xe5\x1d\x84h\xc6\xfcm\xede0I\xba[xB'
p1745
ssS'_usr_local_lib_python2_7_dist-packages_rest_framework_settings'
p1746
(dp1747
g6
(dp1748
g8
S'_usr_local_lib_python2_7_dist-packages_rest_framework_settings.html'
p1749
sg10
S'/usr/local/lib/python2.7/dist-packages/rest_framework/settings'
p1750
sg12
g13
(g14
g15
NtRp1751
(dp1752
g18
I1
sg19
I0
sg20
I48
sg21
I0
sg22
I0
sg23
I9
sg24
I0
sbssg25
S'\xc8\x16&\x8fw\xcd\xd8f\x99\xac05\xb0\x95\x89Y'
p1753
ssS'_usr_local_lib_python2_7_dist-packages_django_contrib_admin_filters'
p1754
(dp1755
g6
(dp1756
g8
S'_usr_local_lib_python2_7_dist-packages_django_contrib_admin_filters.html'
p1757
sg10
S'/usr/local/lib/python2.7/dist-packages/django/contrib/admin/filters'
p1758
sg12
g13
(g14
g15
NtRp1759
(dp1760
g18
I1
sg19
I0
sg20
I188
sg21
I0
sg22
I0
sg23
I127
sg24
I0
sbssg25
S'%\x1aQM\xbd\x86\x9e\x10\xcf\x19D&\x8b=o\xca'
p1761
ssS'_usr_local_lib_python2_7_dist-packages_django_db_models_fields_subclassing'
p1762
(dp1763
g6
(dp1764
g8
S'_usr_local_lib_python2_7_dist-packages_django_db_models_fields_subclassing.html'
p1765
sg10
S'/usr/local/lib/python2.7/dist-packages/django/db/models/fields/subclassing'
p1766
sg12
g13
(g14
g15
NtRp1767
(dp1768
g18
I1
sg19
I0
sg20
I21
sg21
I0
sg22
I0
sg23
I14
sg24
I0
sbssg25
S'\x9a\x13\xd9\xdf4\x08\xd2\xebd\xab\x86M\xef\x16\xb1<'
p1769
ssS'myapp___init__'
p1770
(dp1771
g6
(dp1772
g8
S'myapp___init__.html'
p1773
sg10
S'myapp/__init__'
p1774
sg12
g13
(g14
g15
NtRp1775
(dp1776
g18
I1
sg19
I0
sg20
I0
sg21
I0
sg22
I0
sg23
I0
sg24
I0
sbssg25
S'\xb0\xc8pN\xaf>\xa0\xbaz\x144\xe0A9\xb8?'
p1777
ssS'_usr_local_lib_python2_7_dist-packages_rest_framework_utils_field_mapping'
p1778
(dp1779
g6
(dp1780
g8
S'_usr_local_lib_python2_7_dist-packages_rest_framework_utils_field_mapping.html'
p1781
sg10
S'/usr/local/lib/python2.7/dist-packages/rest_framework/utils/field_mapping'
p1782
sg12
g13
(g14
g15
NtRp1783
(dp1784
g18
I1
sg19
I0
sg20
I117
sg21
I0
sg22
I0
sg23
I99
sg24
I0
sbssg25
S'L_Rf\xcd\xd9\xf4\xed\x98\xf2\xb6:\x18I\xfdO'
p1785
ssS'_usr_local_lib_python2_7_dist-packages_django_db_models_sql_where'
p1786
(dp1787
g6
(dp1788
g8
S'_usr_local_lib_python2_7_dist-packages_django_db_models_sql_where.html'
p1789
sg10
S'/usr/local/lib/python2.7/dist-packages/django/db/models/sql/where'
p1790
sg12
g13
(g14
g15
NtRp1791
(dp1792
g18
I1
sg19
I0
sg20
I236
sg21
I0
sg22
I0
sg23
I153
sg24
I0
sbssg25
S'V\xc8\xad\xc0\xb5]\xde\xd9\xb0\xedW\x94TF\x96\xa3'
p1793
ssS'_usr_local_lib_python2_7_dist-packages_django_template_loaders_cached'
p1794
(dp1795
g6
(dp1796
g8
S'_usr_local_lib_python2_7_dist-packages_django_template_loaders_cached.html'
p1797
sg10
S'/usr/local/lib/python2.7/dist-packages/django/template/loaders/cached'
p1798
sg12
g13
(g14
g15
NtRp1799
(dp1800
g18
I1
sg19
I0
sg20
I57
sg21
I0
sg22
I0
sg23
I45
sg24
I0
sbssg25
S'$Q\xc6N\x9b\xfaA\xf8<\xb8t0t\x0c\xe3\xce'
p1801
ssS'_usr_local_lib_python2_7_dist-packages_django_db_models_fields_proxy'
p1802
(dp1803
g6
(dp1804
g8
S'_usr_local_lib_python2_7_dist-packages_django_db_models_fields_proxy.html'
p1805
sg10
S'/usr/local/lib/python2.7/dist-packages/django/db/models/fields/proxy'
p1806
sg12
g13
(g14
g15
NtRp1807
(dp1808
g18
I1
sg19
I0
sg20
I10
sg21
I0
sg22
I0
sg23
I6
sg24
I0
sbssg25
S'\xdfIF\x9a8\x04\x87\x8d\x99=\xbek\xbf\xd0\x85\xf5'
p1809
ssS'_usr_local_lib_python2_7_dist-packages_django_contrib_messages_storage_cookie'
p1810
(dp1811
g6
(dp1812
g8
S'_usr_local_lib_python2_7_dist-packages_django_contrib_messages_storage_cookie.html'
p1813
sg10
S'/usr/local/lib/python2.7/dist-packages/django/contrib/messages/storage/cookie'
p1814
sg12
g13
(g14
g15
NtRp1815
(dp1816
g18
I1
sg19
I0
sg20
I83
sg21
I0
sg22
I0
sg23
I60
sg24
I0
sbssg25
S'\xf1\x14\xa478x\xf5\xa7\x8b\r\x99\xe7\x87\xcfJz'
p1817
ssS'_usr_local_lib_python2_7_dist-packages_django_db_models_query'
p1818
(dp1819
g6
(dp1820
g8
S'_usr_local_lib_python2_7_dist-packages_django_db_models_query.html'
p1821
sg10
S'/usr/local/lib/python2.7/dist-packages/django/db/models/query'
p1822
sg12
g13
(g14
g15
NtRp1823
(dp1824
g18
I1
sg19
I0
sg20
I992
sg21
I0
sg22
I0
sg23
I663
sg24
I0
sbssg25
S"\xe0'\x10\xab\x10f\x1cY\x90\xb9\x92\xf7\xff\xf3\xa8\x86"
p1825
ssS'_usr_local_lib_python2_7_dist-packages_rest_framework_metadata'
p1826
(dp1827
g6
(dp1828
g8
S'_usr_local_lib_python2_7_dist-packages_rest_framework_metadata.html'
p1829
sg10
S'/usr/local/lib/python2.7/dist-packages/rest_framework/metadata'
p1830
sg12
g13
(g14
g15
NtRp1831
(dp1832
g18
I1
sg19
I0
sg20
I55
sg21
I0
sg22
I0
sg23
I39
sg24
I0
sbssg25
S'O>\xabVC\xe6\x14Ow\xd9\x86\xfc\xac\x85\xbc\xf1'
p1833
ssS'_usr_local_lib_python2_7_dist-packages_django_db_migrations_state'
p1834
(dp1835
g6
(dp1836
g8
S'_usr_local_lib_python2_7_dist-packages_django_db_migrations_state.html'
p1837
sg10
S'/usr/local/lib/python2.7/dist-packages/django/db/migrations/state'
p1838
sg12
g13
(g14
g15
NtRp1839
(dp1840
g18
I1
sg19
I0
sg20
I183
sg21
I0
sg22
I0
sg23
I63
sg24
I0
sbssg25
S'\x14\xe1@cJE\xd8N\xfb[^\xaa\x97Hl\x96'
p1841
ssS'_usr_local_lib_python2_7_dist-packages_django_core_checks_compatibility_django_1_6_0'
p1842
(dp1843
g6
(dp1844
g8
S'_usr_local_lib_python2_7_dist-packages_django_core_checks_compatibility_django_1_6_0.html'
p1845
sg10
S'/usr/local/lib/python2.7/dist-packages/django/core/checks/compatibility/django_1_6_0'
p1846
sg12
g13
(g14
g15
NtRp1847
(dp1848
g18
I1
sg19
I0
sg20
I36
sg21
I0
sg22
I0
sg23
I8
sg24
I0
sbssg25
S'D\x96\x81\xef\xf6\x8a\nC\x91\xcb~\x87.!\xbc\x0f'
p1849
ssS'myproject_settings'
p1850
(dp1851
g6
(dp1852
g8
S'myproject_settings.html'
p1853
sg10
S'myproject/settings'
p1854
sg12
g13
(g14
g15
NtRp1855
(dp1856
g18
I1
sg19
I0
sg20
I23
sg21
I0
sg22
I0
sg23
I0
sg24
I0
sbssg25
S'\xda\xaaj\x02\xb3pX\xf8\xa2\xc4\x0c\xed\xfc\x7f\xe9\xf5'
p1857
ssS'_usr_local_lib_python2_7_dist-packages_django_core_management___init__'
p1858
(dp1859
g6
(dp1860
g8
S'_usr_local_lib_python2_7_dist-packages_django_core_management___init__.html'
p1861
sg10
S'/usr/local/lib/python2.7/dist-packages/django/core/management/__init__'
p1862
sg12
g13
(g14
g15
NtRp1863
(dp1864
g18
I1
sg19
I0
sg20
I173
sg21
I0
sg22
I0
sg23
I79
sg24
I0
sbssg25
S'!\xc4Gw\x8b\xb0j\x94H\xfa\x12\x05$\xe7r\xe7'
p1865
ssS'_usr_local_lib_python2_7_dist-packages_django_contrib_sessions_exceptions'
p1866
(dp1867
g6
(dp1868
g8
S'_usr_local_lib_python2_7_dist-packages_django_contrib_sessions_exceptions.html'
p1869
sg10
S'/usr/local/lib/python2.7/dist-packages/django/contrib/sessions/exceptions'
p1870
sg12
g13
(g14
g15
NtRp1871
(dp1872
g18
I1
sg19
I0
sg20
I5
sg21
I0
sg22
I0
sg23
I0
sg24
I0
sbssg25
S'\xb5o\x11z\x9e\x87\xc6\tc\xa3\xf8C\x84\xa9"Y'
p1873
ssS'_usr_local_lib_python2_7_dist-packages_django_views_generic_base'
p1874
(dp1875
g6
(dp1876
g8
S'_usr_local_lib_python2_7_dist-packages_django_views_generic_base.html'
p1877
sg10
S'/usr/local/lib/python2.7/dist-packages/django/views/generic/base'
p1878
sg12
g13
(g14
g15
NtRp1879
(dp1880
g18
I1
sg19
I0
sg20
I105
sg21
I0
sg22
I0
sg23
I50
sg24
I0
sbssg25
S'\xec\x80\xa8\xc2\x94h\xf3\xc4\xb8\x19\x82\x05\x92u\xb9\xb1'
p1881
ssS'_usr_local_lib_python2_7_dist-packages_django_views_decorators___init__'
p1882
(dp1883
g6
(dp1884
g8
S'_usr_local_lib_python2_7_dist-packages_django_views_decorators___init__.html'
p1885
sg10
S'/usr/local/lib/python2.7/dist-packages/django/views/decorators/__init__'
p1886
sg12
g13
(g14
g15
NtRp1887
(dp1888
g18
I1
sg19
I0
sg20
I0
sg21
I0
sg22
I0
sg23
I0
sg24
I0
sbssg25
S'\xb0\xc8pN\xaf>\xa0\xbaz\x144\xe0A9\xb8?'
p1889
ssS'_usr_local_lib_python2_7_dist-packages_django_db_migrations_loader'
p1890
(dp1891
g6
(dp1892
g8
S'_usr_local_lib_python2_7_dist-packages_django_db_migrations_loader.html'
p1893
sg10
S'/usr/local/lib/python2.7/dist-packages/django/db/migrations/loader'
p1894
sg12
g13
(g14
g15
NtRp1895
(dp1896
g18
I1
sg19
I0
sg20
I165
sg21
I0
sg22
I0
sg23
I57
sg24
I0
sbssg25
S'\xef\xb0[\xf6\xbebU\x9b,%\x15\xe8\x952\x92k'
p1897
ssS'_usr_local_lib_python2_7_dist-packages_django_core_cache_backends_db'
p1898
(dp1899
g6
(dp1900
g8
S'_usr_local_lib_python2_7_dist-packages_django_core_cache_backends_db.html'
p1901
sg10
S'/usr/local/lib/python2.7/dist-packages/django/core/cache/backends/db'
p1902
sg12
g13
(g14
g15
NtRp1903
(dp1904
g18
I1
sg19
I0
sg20
I134
sg21
I0
sg22
I0
sg23
I109
sg24
I0
sbssg25
S'8\x82\x95\xfd,*5u\x99%>2\xf6q\x06}'
p1905
ssS'_usr_local_lib_python2_7_dist-packages_django_core_signals'
p1906
(dp1907
g6
(dp1908
g8
S'_usr_local_lib_python2_7_dist-packages_django_core_signals.html'
p1909
sg10
S'/usr/local/lib/python2.7/dist-packages/django/core/signals'
p1910
sg12
g13
(g14
g15
NtRp1911
(dp1912
g18
I1
sg19
I0
sg20
I4
sg21
I0
sg22
I0
sg23
I0
sg24
I0
sbssg25
S'\xa8\x92\x82\x13=\x82/\x06\xba\xb2\xa6\xad\xc4o\x81\xc2'
p1913
ssS'_usr_local_lib_python2_7_dist-packages_django_views___init__'
p1914
(dp1915
g6
(dp1916
g8
S'_usr_local_lib_python2_7_dist-packages_django_views___init__.html'
p1917
sg10
S'/usr/local/lib/python2.7/dist-packages/django/views/__init__'
p1918
sg12
g13
(g14
g15
NtRp1919
(dp1920
g18
I1
sg19
I0
sg20
I0
sg21
I0
sg22
I0
sg23
I0
sg24
I0
sbssg25
S'\xb0\xc8pN\xaf>\xa0\xbaz\x144\xe0A9\xb8?'
p1921
ssS'_usr_local_lib_python2_7_dist-packages_django_contrib_messages_apps'
p1922
(dp1923
g6
(dp1924
g8
S'_usr_local_lib_python2_7_dist-packages_django_contrib_messages_apps.html'
p1925
sg10
S'/usr/local/lib/python2.7/dist-packages/django/contrib/messages/apps'
p1926
sg12
g13
(g14
g15
NtRp1927
(dp1928
g18
I1
sg19
I0
sg20
I5
sg21
I0
sg22
I0
sg23
I0
sg24
I0
sbssg25
S'c0\xe2f,\xd3\x94\x1a\x10S\x16\x81_%\xf41'
p1929
ssS'_usr_local_lib_python2_7_dist-packages_rest_framework_pagination'
p1930
(dp1931
g6
(dp1932
g8
S'_usr_local_lib_python2_7_dist-packages_rest_framework_pagination.html'
p1933
sg10
S'/usr/local/lib/python2.7/dist-packages/rest_framework/pagination'
p1934
sg12
g13
(g14
g15
NtRp1935
(dp1936
g18
I1
sg19
I0
sg20
I348
sg21
I6
sg22
I0
sg23
I276
sg24
I0
sbssg25
S'\xe5L\xf4\xbc\xd2\x17\xd2{JJ\xf1\xf9\x924\xda\xd7'
p1937
ssS'_usr_local_lib_python2_7_dist-packages_django_utils_datastructures'
p1938
(dp1939
g6
(dp1940
g8
S'_usr_local_lib_python2_7_dist-packages_django_utils_datastructures.html'
p1941
sg10
S'/usr/local/lib/python2.7/dist-packages/django/utils/datastructures'
p1942
sg12
g13
(g14
g15
NtRp1943
(dp1944
g18
I1
sg19
I0
sg20
I317
sg21
I0
sg22
I0
sg23
I186
sg24
I0
sbssg25
S'a\x1cB\x12\x93\x99\x08\x16\x9f^\xa7\xd9K\xdb\xabW'
p1945
ssS'_usr_local_lib_python2_7_dist-packages_django_contrib_sessions_backends_base'
p1946
(dp1947
g6
(dp1948
g8
S'_usr_local_lib_python2_7_dist-packages_django_contrib_sessions_backends_base.html'
p1949
sg10
S'/usr/local/lib/python2.7/dist-packages/django/contrib/sessions/backends/base'
p1950
sg12
g13
(g14
g15
NtRp1951
(dp1952
g18
I1
sg19
I0
sg20
I181
sg21
I0
sg22
I0
sg23
I116
sg24
I0
sbssg25
S'\xfb\xb1!7\xadIu\xe3E\xa1{\xdaQ\x96\xa2\xd7'
p1953
ssS'_usr_local_lib_python2_7_dist-packages_django_core_checks_compatibility___init__'
p1954
(dp1955
g6
(dp1956
g8
S'_usr_local_lib_python2_7_dist-packages_django_core_checks_compatibility___init__.html'
p1957
sg10
S'/usr/local/lib/python2.7/dist-packages/django/core/checks/compatibility/__init__'
p1958
sg12
g13
(g14
g15
NtRp1959
(dp1960
g18
I1
sg19
I0
sg20
I0
sg21
I0
sg22
I0
sg23
I0
sg24
I0
sbssg25
S'\xb0\xc8pN\xaf>\xa0\xbaz\x144\xe0A9\xb8?'
p1961
ssS'_usr_local_lib_python2_7_dist-packages_django_core_serializers_pyyaml'
p1962
(dp1963
g6
(dp1964
g8
S'_usr_local_lib_python2_7_dist-packages_django_core_serializers_pyyaml.html'
p1965
sg10
S'/usr/local/lib/python2.7/dist-packages/django/core/serializers/pyyaml'
p1966
sg12
g13
(g14
g15
NtRp1967
(dp1968
g18
I1
sg19
I0
sg20
I41
sg21
I0
sg22
I0
sg23
I20
sg24
I0
sbssg25
S'\xf6\xc3\xee\xddE\x1a\xc2\xe1\x8e\xa5#\xb9bb\x050'
p1969
ssS'_usr_local_lib_python2_7_dist-packages_django_db_migrations_optimizer'
p1970
(dp1971
g6
(dp1972
g8
S'_usr_local_lib_python2_7_dist-packages_django_db_migrations_optimizer.html'
p1973
sg10
S'/usr/local/lib/python2.7/dist-packages/django/db/migrations/optimizer'
p1974
sg12
g13
(g14
g15
NtRp1975
(dp1976
g18
I1
sg19
I0
sg20
I98
sg21
I0
sg22
I0
sg23
I75
sg24
I0
sbssg25
S'J\x9aJ\\k\x1f\xc04#->\xcb\xcb\x93_\xa5'
p1977
ssS'_usr_local_lib_python2_7_dist-packages_django_db_backends_mysql_schema'
p1978
(dp1979
g6
(dp1980
g8
S'_usr_local_lib_python2_7_dist-packages_django_db_backends_mysql_schema.html'
p1981
sg10
S'/usr/local/lib/python2.7/dist-packages/django/db/backends/mysql/schema'
p1982
sg12
g13
(g14
g15
NtRp1983
(dp1984
g18
I1
sg19
I0
sg20
I27
sg21
I0
sg22
I0
sg23
I7
sg24
I0
sbssg25
S'V\xa4\xef=\xf1\xc9\xcc5B\x9a\x14\x1e\xddd\x91\x18'
p1985
ssS'_usr_local_lib_python2_7_dist-packages_django_http_response'
p1986
(dp1987
g6
(dp1988
g8
S'_usr_local_lib_python2_7_dist-packages_django_http_response.html'
p1989
sg10
S'/usr/local/lib/python2.7/dist-packages/django/http/response'
p1990
sg12
g13
(g14
g15
NtRp1991
(dp1992
g18
I1
sg19
I0
sg20
I235
sg21
I0
sg22
I0
sg23
I100
sg24
I0
sbssg25
S'\xdc}\xf4}\xbbc\xdd]\xb0Q\xc9B\x9es\xee\x9f'
p1993
ssS'_usr_local_lib_python2_7_dist-packages_django_db_models___init__'
p1994
(dp1995
g6
(dp1996
g8
S'_usr_local_lib_python2_7_dist-packages_django_db_models___init__.html'
p1997
sg10
S'/usr/local/lib/python2.7/dist-packages/django/db/models/__init__'
p1998
sg12
g13
(g14
g15
NtRp1999
(dp2000
g18
I1
sg19
I0
sg20
I35
sg21
I0
sg22
I0
sg23
I8
sg24
I0
sbssg25
S'(\xa1\xe7\xa29u"9\x9c\xa7\xcbBc\xc9\x90I'
p2001
ssS'_usr_local_lib_python2_7_dist-packages_django_contrib_auth_management___init__'
p2002
(dp2003
g6
(dp2004
g8
S'_usr_local_lib_python2_7_dist-packages_django_contrib_auth_management___init__.html'
p2005
sg10
S'/usr/local/lib/python2.7/dist-packages/django/contrib/auth/management/__init__'
p2006
sg12
g13
(g14
g15
NtRp2007
(dp2008
g18
I1
sg19
I0
sg20
I89
sg21
I0
sg22
I0
sg23
I40
sg24
I0
sbssg25
S'\xc0\xcd\x04v6^#\xe6\xe3\xd8\x07\xda\xd6\x13B\xcd'
p2009
ssS'_usr_local_lib_python2_7_dist-packages_django_db___init__'
p2010
(dp2011
g6
(dp2012
g8
S'_usr_local_lib_python2_7_dist-packages_django_db___init__.html'
p2013
sg10
S'/usr/local/lib/python2.7/dist-packages/django/db/__init__'
p2014
sg12
g13
(g14
g15
NtRp2015
(dp2016
g18
I1
sg19
I0
sg20
I50
sg21
I0
sg22
I0
sg23
I20
sg24
I0
sbssg25
S'{\x90u\xc5\x8b\xd6w\xbf<\xcd\xa4\x01\xb6\x0c\xd8\x99'
p2017
ssS'_usr_local_lib_python2_7_dist-packages_django_contrib_admin_apps'
p2018
(dp2019
g6
(dp2020
g8
S'_usr_local_lib_python2_7_dist-packages_django_contrib_admin_apps.html'
p2021
sg10
S'/usr/local/lib/python2.7/dist-packages/django/contrib/admin/apps'
p2022
sg12
g13
(g14
g15
NtRp2023
(dp2024
g18
I1
sg19
I0
sg20
I13
sg21
I0
sg22
I0
sg23
I0
sg24
I0
sbssg25
S'\xc8\x8c\xbdM\x19\xc6Q\xc2\xbf\xc0z\x8e\xa1\xcc\x10{'
p2025
ssS'_usr_local_lib_python2_7_dist-packages_django_contrib_messages_middleware'
p2026
(dp2027
g6
(dp2028
g8
S'_usr_local_lib_python2_7_dist-packages_django_contrib_messages_middleware.html'
p2029
sg10
S'/usr/local/lib/python2.7/dist-packages/django/contrib/messages/middleware'
p2030
sg12
g13
(g14
g15
NtRp2031
(dp2032
g18
I1
sg19
I0
sg20
I11
sg21
I0
sg22
I0
sg23
I1
sg24
I0
sbssg25
S'Ck\x91\x91\x8c\xffq\xa6?\x04\x83\xb5Q\x8eJ\xca'
p2033
ssS'_usr_local_lib_python2_7_dist-packages_django_contrib_auth_admin'
p2034
(dp2035
g6
(dp2036
g8
S'_usr_local_lib_python2_7_dist-packages_django_contrib_auth_admin.html'
p2037
sg10
S'/usr/local/lib/python2.7/dist-packages/django/contrib/auth/admin'
p2038
sg12
g13
(g14
g15
NtRp2039
(dp2040
g18
I1
sg19
I0
sg20
I99
sg21
I0
sg22
I0
sg23
I47
sg24
I0
sbssg25
S'\xe5P\xea\xa7\xb0\xae+-\x92\xe5\ra\xa5\x9eJ\x99'
p2041
ssS'_usr_local_lib_python2_7_dist-packages_rest_framework_models'
p2042
(dp2043
g6
(dp2044
g8
S'_usr_local_lib_python2_7_dist-packages_rest_framework_models.html'
p2045
sg10
S'/usr/local/lib/python2.7/dist-packages/rest_framework/models'
p2046
sg12
g13
(g14
g15
NtRp2047
(dp2048
g18
I1
sg19
I0
sg20
I0
sg21
I0
sg22
I0
sg23
I0
sg24
I0
sbssg25
S' E\xaf\xdd\xe7\xbb\xc4\x11z\xf8\x80\x18v.\xec\xf6'
p2049
ssS'myproject_urls'
p2050
(dp2051
g6
(dp2052
g8
S'myproject_urls.html'
p2053
sg10
S'myproject/urls'
p2054
sg12
g13
(g14
g15
NtRp2055
(dp2056
g18
I1
sg19
I0
sg20
I8
sg21
I0
sg22
I0
sg23
I0
sg24
I0
sbssg25
S'V.3\xb9\xad\xb6\x86\xf0p\xc3\xbb\xc7z\xc8\xac:'
p2057
ssS'_usr_local_lib_python2_7_dist-packages_rest_framework_views'
p2058
(dp2059
g6
(dp2060
g8
S'_usr_local_lib_python2_7_dist-packages_rest_framework_views.html'
p2061
sg10
S'/usr/local/lib/python2.7/dist-packages/rest_framework/views'
p2062
sg12
g13
(g14
g15
NtRp2063
(dp2064
g18
I1
sg19
I0
sg20
I200
sg21
I0
sg22
I0
sg23
I80
sg24
I0
sbssg25
S'\xee\r\x0b\xf8\xc0\xbc\xba\x10A}JD\xb9\xd6\x86\x1c'
p2065
ssS'_usr_local_lib_python2_7_dist-packages_django_contrib_admin_widgets'
p2066
(dp2067
g6
(dp2068
g8
S'_usr_local_lib_python2_7_dist-packages_django_contrib_admin_widgets.html'
p2069
sg10
S'/usr/local/lib/python2.7/dist-packages/django/contrib/admin/widgets'
p2070
sg12
g13
(g14
g15
NtRp2071
(dp2072
g18
I1
sg19
I0
sg20
I224
sg21
I0
sg22
I0
sg23
I154
sg24
I0
sbssg25
S'Z\x00(H\xe7\x90\x88A\xcdK\x98F\xa1\x19~i'
p2073
ssS'_usr_local_lib_python2_7_dist-packages_django_db_backends_signals'
p2074
(dp2075
g6
(dp2076
g8
S'_usr_local_lib_python2_7_dist-packages_django_db_backends_signals.html'
p2077
sg10
S'/usr/local/lib/python2.7/dist-packages/django/db/backends/signals'
p2078
sg12
g13
(g14
g15
NtRp2079
(dp2080
g18
I1
sg19
I0
sg20
I2
sg21
I0
sg22
I0
sg23
I0
sg24
I0
sbssg25
S'\xac\xe8\xc0\xe9\x8a\xd9d\xcc\x03\xc1\x89\xd4\xde\xa8x<'
p2081
ssS'_usr_local_lib_python2_7_dist-packages_django_core_files_uploadedfile'
p2082
(dp2083
g6
(dp2084
g8
S'_usr_local_lib_python2_7_dist-packages_django_core_files_uploadedfile.html'
p2085
sg10
S'/usr/local/lib/python2.7/dist-packages/django/core/files/uploadedfile'
p2086
sg12
g13
(g14
g15
NtRp2087
(dp2088
g18
I1
sg19
I0
sg20
I60
sg21
I0
sg22
I0
sg23
I33
sg24
I0
sbssg25
S'\xf0\x89\x91{\xe4\xbb\xa5\xe2\xee\xd4\xbc6G\x86\x97\x98'
p2089
ssS'_usr_local_lib_python2_7_dist-packages_django_utils_itercompat'
p2090
(dp2091
g6
(dp2092
g8
S'_usr_local_lib_python2_7_dist-packages_django_utils_itercompat.html'
p2093
sg10
S'/usr/local/lib/python2.7/dist-packages/django/utils/itercompat'
p2094
sg12
g13
(g14
g15
NtRp2095
(dp2096
g18
I1
sg19
I0
sg20
I6
sg21
I0
sg22
I0
sg23
I2
sg24
I0
sbssg25
S"\xec\x87\xff\xc4\xf4\x1ah\xc7\x8f\\%'\xc7\x8e\x0b\xbc"
p2097
ssS'_usr_local_lib_python2_7_dist-packages_django_db_models_lookups'
p2098
(dp2099
g6
(dp2100
g8
S'_usr_local_lib_python2_7_dist-packages_django_db_models_lookups.html'
p2101
sg10
S'/usr/local/lib/python2.7/dist-packages/django/db/models/lookups'
p2102
sg12
g13
(g14
g15
NtRp2103
(dp2104
g18
I1
sg19
I0
sg20
I254
sg21
I0
sg22
I0
sg23
I85
sg24
I0
sbssg25
S'U&?\xa5\xbdM\xcdT\x01j\xe1I\x94H\xec\x14'
p2105
ssS'_usr_local_lib_python2_7_dist-packages_django_contrib_auth_checks'
p2106
(dp2107
g6
(dp2108
g8
S'_usr_local_lib_python2_7_dist-packages_django_contrib_auth_checks.html'
p2109
sg10
S'/usr/local/lib/python2.7/dist-packages/django/contrib/auth/checks'
p2110
sg12
g13
(g14
g15
NtRp2111
(dp2112
g18
I1
sg19
I0
sg20
I16
sg21
I0
sg22
I0
sg23
I5
sg24
I0
sbssg25
S'\xea\x94\xafu\x03\xf8\x9b0\xd1\x088\xcc\xd5y\x9bL'
p2113
ssS'_usr_local_lib_python2_7_dist-packages_django_templatetags___init__'
p2114
(dp2115
g6
(dp2116
g8
S'_usr_local_lib_python2_7_dist-packages_django_templatetags___init__.html'
p2117
sg10
S'/usr/local/lib/python2.7/dist-packages/django/templatetags/__init__'
p2118
sg12
g13
(g14
g15
NtRp2119
(dp2120
g18
I1
sg19
I0
sg20
I0
sg21
I0
sg22
I0
sg23
I0
sg24
I0
sbssg25
S'\xb0\xc8pN\xaf>\xa0\xbaz\x144\xe0A9\xb8?'
p2121
ssS'_usr_local_lib_python2_7_dist-packages_django_db_backends___init__'
p2122
(dp2123
g6
(dp2124
g8
S'_usr_local_lib_python2_7_dist-packages_django_db_backends___init__.html'
p2125
sg10
S'/usr/local/lib/python2.7/dist-packages/django/db/backends/__init__'
p2126
sg12
g13
(g14
g15
NtRp2127
(dp2128
g18
I1
sg19
I0
sg20
I609
sg21
I0
sg22
I0
sg23
I212
sg24
I0
sbssg25
S'\xab\xb9G\xd9\xb4\xf7\xd7O9\x9c\x83GW\xf6\x9f)'
p2129
ssS'_usr_local_lib_python2_7_dist-packages_django_middleware_cache'
p2130
(dp2131
g6
(dp2132
g8
S'_usr_local_lib_python2_7_dist-packages_django_middleware_cache.html'
p2133
sg10
S'/usr/local/lib/python2.7/dist-packages/django/middleware/cache'
p2134
sg12
g13
(g14
g15
NtRp2135
(dp2136
g18
I1
sg19
I0
sg20
I92
sg21
I0
sg22
I0
sg23
I77
sg24
I0
sbssg25
S'T\x86\x1f\xf9\xa3\x17\xaeSF\xdd\x90\xa5\x81v\xc9\xee'
p2137
ssS'_usr_local_lib_python2_7_dist-packages_django_contrib_messages_constants'
p2138
(dp2139
g6
(dp2140
g8
S'_usr_local_lib_python2_7_dist-packages_django_contrib_messages_constants.html'
p2141
sg10
S'/usr/local/lib/python2.7/dist-packages/django/contrib/messages/constants'
p2142
sg12
g13
(g14
g15
NtRp2143
(dp2144
g18
I1
sg19
I0
sg20
I7
sg21
I0
sg22
I0
sg23
I0
sg24
I0
sbssg25
S'_ \x8bb\xed|\xfe\xd5\xbe\x06\xbb\xa4\xfd\xc5X\xb9'
p2145
ssS'_usr_local_lib_python2_7_dist-packages_django_utils_formats'
p2146
(dp2147
g6
(dp2148
g8
S'_usr_local_lib_python2_7_dist-packages_django_utils_formats.html'
p2149
sg10
S'/usr/local/lib/python2.7/dist-packages/django/utils/formats'
p2150
sg12
g13
(g14
g15
NtRp2151
(dp2152
g18
I1
sg19
I0
sg20
I118
sg21
I0
sg22
I0
sg23
I92
sg24
I0
sbssg25
S'\x14\xa3#\x15y\x9a\xe1\x80\xb5\xc9\xdb\xac\xc8\xcf\r\x89'
p2153
ssS'_usr_local_lib_python2_7_dist-packages_django_middleware_common'
p2154
(dp2155
g6
(dp2156
g8
S'_usr_local_lib_python2_7_dist-packages_django_middleware_common.html'
p2157
sg10
S'/usr/local/lib/python2.7/dist-packages/django/middleware/common'
p2158
sg12
g13
(g14
g15
NtRp2159
(dp2160
g18
I1
sg19
I0
sg20
I78
sg21
I0
sg22
I0
sg23
I47
sg24
I0
sbssg25
S'\xf9b\x11\xb8\xd9\xf5P}\xc5\x05\xea\xa7\x87\xea\xc8\xe2'
p2161
ssS'myapp_views'
p2162
(dp2163
g6
(dp2164
g8
S'myapp_views.html'
p2165
sg10
S'myapp/views'
p2166
sg12
g13
(g14
g15
NtRp2167
(dp2168
g18
I1
sg19
I0
sg20
I30
sg21
I0
sg22
I0
sg23
I6
sg24
I0
sbssg25
S'\xb3N_\x0cI"\xf0\xc9\xa9\x8a\xa9\x97\xd0]@#'
p2169
ssS'_usr_local_lib_python2_7_dist-packages_rest_framework_utils_encoders'
p2170
(dp2171
g6
(dp2172
g8
S'_usr_local_lib_python2_7_dist-packages_rest_framework_utils_encoders.html'
p2173
sg10
S'/usr/local/lib/python2.7/dist-packages/rest_framework/utils/encoders'
p2174
sg12
g13
(g14
g15
NtRp2175
(dp2176
g18
I1
sg19
I0
sg20
I48
sg21
I0
sg22
I0
sg23
I36
sg24
I0
sbssg25
S'\x15\xb4\xc1\xbb\xd8\xfb\xf0J\x8e\xcb\xec\xb6c\x0bWY'
p2177
ssS'_usr_local_lib_python2_7_dist-packages_django_core_files_storage'
p2178
(dp2179
g6
(dp2180
g8
S'_usr_local_lib_python2_7_dist-packages_django_core_files_storage.html'
p2181
sg10
S'/usr/local/lib/python2.7/dist-packages/django/core/files/storage'
p2182
sg12
g13
(g14
g15
NtRp2183
(dp2184
g18
I1
sg19
I0
sg20
I153
sg21
I0
sg22
I0
sg23
I94
sg24
I0
sbssg25
S'f\xcd:\xfb\xce\x87#\xe1\x95-V\xe8\xed\x95W\xee'
p2185
ssS'_usr_local_lib_python2_7_dist-packages_django_utils_ipv6'
p2186
(dp2187
g6
(dp2188
g8
S'_usr_local_lib_python2_7_dist-packages_django_utils_ipv6.html'
p2189
sg10
S'/usr/local/lib/python2.7/dist-packages/django/utils/ipv6'
p2190
sg12
g13
(g14
g15
NtRp2191
(dp2192
g18
I1
sg19
I0
sg20
I108
sg21
I0
sg22
I0
sg23
I99
sg24
I0
sbssg25
S'\x0c\xa8\xed\xf2\x87`+\xb3\xf1\xab\xe6\xe9C\x04\x85\x12'
p2193
ssS'_usr_local_lib_python2_7_dist-packages_django_db_models_sql_compiler'
p2194
(dp2195
g6
(dp2196
g8
S'_usr_local_lib_python2_7_dist-packages_django_db_models_sql_compiler.html'
p2197
sg10
S'/usr/local/lib/python2.7/dist-packages/django/db/models/sql/compiler'
p2198
sg12
g13
(g14
g15
NtRp2199
(dp2200
g18
I1
sg19
I0
sg20
I703
sg21
I0
sg22
I0
sg23
I382
sg24
I0
sbssg25
S'\xe3L\x80K\x0f+\xf9\xe3H\xf0\xf5\xdfe\x9d\xf0\xeb'
p2201
ssS'_usr_local_lib_python2_7_dist-packages_django_db_models_sql_subqueries'
p2202
(dp2203
g6
(dp2204
g8
S'_usr_local_lib_python2_7_dist-packages_django_db_models_sql_subqueries.html'
p2205
sg10
S'/usr/local/lib/python2.7/dist-packages/django/db/models/sql/subqueries'
p2206
sg12
g13
(g14
g15
NtRp2207
(dp2208
g18
I1
sg19
I0
sg20
I143
sg21
I0
sg22
I0
sg23
I92
sg24
I0
sbssg25
S'\xca\x87\x177b\xf4\x83\xea\x9a\xdeT\xad>3\xe7\xc9'
p2209
ssS'_usr_local_lib_python2_7_dist-packages_rest_framework_serializers'
p2210
(dp2211
g6
(dp2212
g8
S'_usr_local_lib_python2_7_dist-packages_rest_framework_serializers.html'
p2213
sg10
S'/usr/local/lib/python2.7/dist-packages/rest_framework/serializers'
p2214
sg12
g13
(g14
g15
NtRp2215
(dp2216
g18
I1
sg19
I0
sg20
I543
sg21
I0
sg22
I0
sg23
I410
sg24
I0
sbssg25
S'r\x06\xaa\xfab\x12)\x99\x8d\xdb\x97\xaa\xc9\x1e\xc1H'
p2217
ssS'_usr_local_lib_python2_7_dist-packages_django_contrib_sessions___init__'
p2218
(dp2219
g6
(dp2220
g8
S'_usr_local_lib_python2_7_dist-packages_django_contrib_sessions___init__.html'
p2221
sg10
S'/usr/local/lib/python2.7/dist-packages/django/contrib/sessions/__init__'
p2222
sg12
g13
(g14
g15
NtRp2223
(dp2224
g18
I1
sg19
I0
sg20
I1
sg21
I0
sg22
I0
sg23
I0
sg24
I0
sbssg25
S'\x99j\xbb\x1d\xaf\xb9%M\xb7w\x0c\xdc\xd5\xec\xfe\xcc'
p2225
ssS'_usr_local_lib_python2_7_dist-packages_django_core_mail_utils'
p2226
(dp2227
g6
(dp2228
g8
S'_usr_local_lib_python2_7_dist-packages_django_core_mail_utils.html'
p2229
sg10
S'/usr/local/lib/python2.7/dist-packages/django/core/mail/utils'
p2230
sg12
g13
(g14
g15
NtRp2231
(dp2232
g18
I1
sg19
I0
sg20
I9
sg21
I0
sg22
I0
sg23
I4
sg24
I0
sbssg25
S'q\x8f\x86\xa8\x10\xa1\x04\x98^\x0e\xe8\x93\xb7X\xaan'
p2233
ssS'_usr_local_lib_python2_7_dist-packages_django_core_serializers_base'
p2234
(dp2235
g6
(dp2236
g8
S'_usr_local_lib_python2_7_dist-packages_django_core_serializers_base.html'
p2237
sg10
S'/usr/local/lib/python2.7/dist-packages/django/core/serializers/base'
p2238
sg12
g13
(g14
g15
NtRp2239
(dp2240
g18
I1
sg19
I0
sg20
I90
sg21
I0
sg22
I0
sg23
I33
sg24
I0
sbssg25
S"'\xba\n\xf9\x0c\xe7?\xaaD\xff\xb7M\xc2\xbf\x19\xb4"
p2241
ssS'_usr_local_lib_python2_7_dist-packages_django_contrib_messages___init__'
p2242
(dp2243
g6
(dp2244
g8
S'_usr_local_lib_python2_7_dist-packages_django_contrib_messages___init__.html'
p2245
sg10
S'/usr/local/lib/python2.7/dist-packages/django/contrib/messages/__init__'
p2246
sg12
g13
(g14
g15
NtRp2247
(dp2248
g18
I1
sg19
I0
sg20
I3
sg21
I0
sg22
I0
sg23
I0
sg24
I0
sbssg25
S'=\xbb\xec\x1b\xf4\xe6$\xf7Z\x0b\xa8\xdf\x11\x1c\xd3\xfa'
p2249
ssS'_usr_local_lib_python2_7_dist-packages_django_test_utils'
p2250
(dp2251
g6
(dp2252
g8
S'_usr_local_lib_python2_7_dist-packages_django_test_utils.html'
p2253
sg10
S'/usr/local/lib/python2.7/dist-packages/django/test/utils'
p2254
sg12
g13
(g14
g15
NtRp2255
(dp2256
g18
I1
sg19
I0
sg20
I301
sg21
I0
sg22
I0
sg23
I200
sg24
I0
sbssg25
S"9R9'o\xbd\xfa\xc5D\xe2\x081)Dk\xbe"
p2257
ssS'_usr_local_lib_python2_7_dist-packages_rest_framework___init__'
p2258
(dp2259
g6
(dp2260
g8
S'_usr_local_lib_python2_7_dist-packages_rest_framework___init__.html'
p2261
sg10
S'/usr/local/lib/python2.7/dist-packages/rest_framework/__init__'
p2262
sg12
g13
(g14
g15
NtRp2263
(dp2264
g18
I1
sg19
I0
sg20
I8
sg21
I0
sg22
I0
sg23
I0
sg24
I0
sbssg25
S'E\x0bs\x93\x86\xa2c\xd4\xe9\xaf*R`6E*'
p2265
ssS'_usr_local_lib_python2_7_dist-packages_django_contrib_staticfiles___init__'
p2266
(dp2267
g6
(dp2268
g8
S'_usr_local_lib_python2_7_dist-packages_django_contrib_staticfiles___init__.html'
p2269
sg10
S'/usr/local/lib/python2.7/dist-packages/django/contrib/staticfiles/__init__'
p2270
sg12
g13
(g14
g15
NtRp2271
(dp2272
g18
I1
sg19
I0
sg20
I1
sg21
I0
sg22
I0
sg23
I0
sg24
I0
sbssg25
S'o\xf4\x8a\xb6\x10I\xf4G\xa2_\xba$\xf9\xd2\xb1{'
p2273
ssS'_usr_local_lib_python2_7_dist-packages_django_contrib_admin_exceptions'
p2274
(dp2275
g6
(dp2276
g8
S'_usr_local_lib_python2_7_dist-packages_django_contrib_admin_exceptions.html'
p2277
sg10
S'/usr/local/lib/python2.7/dist-packages/django/contrib/admin/exceptions'
p2278
sg12
g13
(g14
g15
NtRp2279
(dp2280
g18
I1
sg19
I0
sg20
I5
sg21
I0
sg22
I0
sg23
I0
sg24
I0
sbssg25
S'J`\x85\xe1= \x00c\x95\xd7\x98\x0b\x0f\xf7\xf4\x7f'
p2281
ssS'_usr_local_lib_python2_7_dist-packages_django_contrib_admin_validation'
p2282
(dp2283
g6
(dp2284
g8
S'_usr_local_lib_python2_7_dist-packages_django_contrib_admin_validation.html'
p2285
sg10
S'/usr/local/lib/python2.7/dist-packages/django/contrib/admin/validation'
p2286
sg12
g13
(g14
g15
NtRp2287
(dp2288
g18
I1
sg19
I0
sg20
I259
sg21
I0
sg22
I0
sg23
I214
sg24
I0
sbssg25
S"'\x13\x85\xc0\x9c\xf9]\xeb \xfd\x187\xc4\xca+\xb3"
p2289
ssS'_usr_local_lib_python2_7_dist-packages_django_contrib_staticfiles_storage'
p2290
(dp2291
g6
(dp2292
g8
S'_usr_local_lib_python2_7_dist-packages_django_contrib_staticfiles_storage.html'
p2293
sg10
S'/usr/local/lib/python2.7/dist-packages/django/contrib/staticfiles/storage'
p2294
sg12
g13
(g14
g15
NtRp2295
(dp2296
g18
I1
sg19
I0
sg20
I243
sg21
I0
sg22
I0
sg23
I177
sg24
I0
sbssg25
S'\x7fY\x8bPh\x9e\xa9\xd4\xb9\xd13\xc1\xc1\xdbo('
p2297
ssS'_usr_local_lib_python2_7_dist-packages_django_contrib_admin_actions'
p2298
(dp2299
g6
(dp2300
g8
S'_usr_local_lib_python2_7_dist-packages_django_contrib_admin_actions.html'
p2301
sg10
S'/usr/local/lib/python2.7/dist-packages/django/contrib/admin/actions'
p2302
sg12
g13
(g14
g15
NtRp2303
(dp2304
g18
I1
sg19
I0
sg20
I35
sg21
I0
sg22
I0
sg23
I25
sg24
I0
sbssg25
S'\xbc\x95\xa5\x81B\x17\xf9Q\xa2p\x03\xcb\x8f4O\x14'
p2305
ssS'_usr_local_lib_python2_7_dist-packages_django_contrib_admin_migrations___init__'
p2306
(dp2307
g6
(dp2308
g8
S'_usr_local_lib_python2_7_dist-packages_django_contrib_admin_migrations___init__.html'
p2309
sg10
S'/usr/local/lib/python2.7/dist-packages/django/contrib/admin/migrations/__init__'
p2310
sg12
g13
(g14
g15
NtRp2311
(dp2312
g18
I1
sg19
I0
sg20
I0
sg21
I0
sg22
I0
sg23
I0
sg24
I0
sbssg25
S'\xb0\xc8pN\xaf>\xa0\xbaz\x144\xe0A9\xb8?'
p2313
ssS'_usr_local_lib_python2_7_dist-packages_django_core_management_commands_dumpdata'
p2314
(dp2315
g6
(dp2316
g8
S'_usr_local_lib_python2_7_dist-packages_django_core_management_commands_dumpdata.html'
p2317
sg10
S'/usr/local/lib/python2.7/dist-packages/django/core/management/commands/dumpdata'
p2318
sg12
g13
(g14
g15
NtRp2319
(dp2320
g18
I1
sg19
I0
sg20
I145
sg21
I0
sg22
I0
sg23
I91
sg24
I0
sbssg25
S'Nw3C\xe9\xc6\x009\xd3|\xa3\x9e\xd4"\x149'
p2321
ssS'_usr_local_lib_python2_7_dist-packages_rest_framework_utils_serializer_helpers'
p2322
(dp2323
g6
(dp2324
g8
S'_usr_local_lib_python2_7_dist-packages_rest_framework_utils_serializer_helpers.html'
p2325
sg10
S'/usr/local/lib/python2.7/dist-packages/rest_framework/utils/serializer_helpers'
p2326
sg12
g13
(g14
g15
NtRp2327
(dp2328
g18
I1
sg19
I0
sg20
I61
sg21
I0
sg22
I0
sg23
I31
sg24
I0
sbssg25
S'\x81\x1d\xb1\xad\xa0\x9d\x13\xda\x02\x83\x89B\x80\xdeN\x14'
p2329
ssS'_usr_local_lib_python2_7_dist-packages_rest_framework_compat'
p2330
(dp2331
g6
(dp2332
g8
S'_usr_local_lib_python2_7_dist-packages_rest_framework_compat.html'
p2333
sg10
S'/usr/local/lib/python2.7/dist-packages/rest_framework/compat'
p2334
sg12
g13
(g14
g15
NtRp2335
(dp2336
g18
I1
sg19
I0
sg20
I145
sg21
I0
sg22
I0
sg23
I79
sg24
I0
sbssg25
S'r"\xd7\xb9}&\x1b\xb9\xba\x9a\x01\x1f\xafkW\x11'
p2337
ssS'_usr_local_lib_python2_7_dist-packages_django_template_context'
p2338
(dp2339
g6
(dp2340
g8
S'_usr_local_lib_python2_7_dist-packages_django_template_context.html'
p2341
sg10
S'/usr/local/lib/python2.7/dist-packages/django/template/context'
p2342
sg12
g13
(g14
g15
NtRp2343
(dp2344
g18
I1
sg19
I0
sg20
I121
sg21
I0
sg22
I0
sg23
I56
sg24
I0
sbssg25
S'I\x9f\xcd\xeb\x9cN\xac\xdd\xea\x93\x81\xf7\xe7O\x01\xea'
p2345
ssS'_usr_local_lib_python2_7_dist-packages_django_db_models_sql_expressions'
p2346
(dp2347
g6
(dp2348
g8
S'_usr_local_lib_python2_7_dist-packages_django_db_models_sql_expressions.html'
p2349
sg10
S'/usr/local/lib/python2.7/dist-packages/django/db/models/sql/expressions'
p2350
sg12
g13
(g14
g15
NtRp2351
(dp2352
g18
I1
sg19
I0
sg20
I83
sg21
I0
sg22
I0
sg23
I68
sg24
I0
sbssg25
S'\xcfl\xb8L\xeb\x1b\xdd\xf6\x13x\x88\xc3Gv\xdb%'
p2353
ssS'_usr_local_lib_python2_7_dist-packages_django_core_files_locks'
p2354
(dp2355
g6
(dp2356
g8
S'_usr_local_lib_python2_7_dist-packages_django_core_files_locks.html'
p2357
sg10
S'/usr/local/lib/python2.7/dist-packages/django/core/files/locks'
p2358
sg12
g13
(g14
g15
NtRp2359
(dp2360
g18
I1
sg19
I0
sg20
I57
sg21
I0
sg22
I0
sg23
I46
sg24
I0
sbssg25
S'F\xa8\xff]\xbc\xf7a\xeb\xe5\xcf\xddW\x994\xaeP'
p2361
ssS'_usr_local_lib_python2_7_dist-packages_django_utils_termcolors'
p2362
(dp2363
g6
(dp2364
g8
S'_usr_local_lib_python2_7_dist-packages_django_utils_termcolors.html'
p2365
sg10
S'/usr/local/lib/python2.7/dist-packages/django/utils/termcolors'
p2366
sg12
g13
(g14
g15
NtRp2367
(dp2368
g18
I1
sg19
I0
sg20
I57
sg21
I0
sg22
I0
sg23
I29
sg24
I0
sbssg25
S'\x91\x9cU\x19\xc3\xde\x93>\x81\x83\xef\x12\x1c?.\x1c'
p2369
ssS'_usr_local_lib_python2_7_dist-packages_django_template_response'
p2370
(dp2371
g6
(dp2372
g8
S'_usr_local_lib_python2_7_dist-packages_django_template_response.html'
p2373
sg10
S'/usr/local/lib/python2.7/dist-packages/django/template/response'
p2374
sg12
g13
(g14
g15
NtRp2375
(dp2376
g18
I1
sg19
I0
sg20
I72
sg21
I0
sg22
I0
sg23
I38
sg24
I0
sbssg25
S'U{\x1a\xc3\x01.\xc1\xcai\xe5\x9a\x87\xa6\xe9\x12z'
p2377
ssS'_usr_local_lib_python2_7_dist-packages_django_http_multipartparser'
p2378
(dp2379
g6
(dp2380
g8
S'_usr_local_lib_python2_7_dist-packages_django_http_multipartparser.html'
p2381
sg10
S'/usr/local/lib/python2.7/dist-packages/django/http/multipartparser'
p2382
sg12
g13
(g14
g15
NtRp2383
(dp2384
g18
I1
sg19
I0
sg20
I351
sg21
I0
sg22
I0
sg23
I279
sg24
I0
sbssg25
S'7\x88\xaaP\xf1;q9\x16o\x84D\xac\x19\xddr'
p2385
ssS'_usr_local_lib_python2_7_dist-packages_django_core_checks_compatibility_django_1_7_0'
p2386
(dp2387
g6
(dp2388
g8
S'_usr_local_lib_python2_7_dist-packages_django_core_checks_compatibility_django_1_7_0.html'
p2389
sg10
S'/usr/local/lib/python2.7/dist-packages/django/core/checks/compatibility/django_1_7_0'
p2390
sg12
g13
(g14
g15
NtRp2391
(dp2392
g18
I1
sg19
I0
sg20
I11
sg21
I0
sg22
I0
sg23
I1
sg24
I0
sbssg25
S'\xd9l\xc5c.\x1f\x83\xe1\xd4\xbd\x04}86\x8aJ'
p2393
ssS'_usr_local_lib_python2_7_dist-packages_django_core_mail_message'
p2394
(dp2395
g6
(dp2396
g8
S'_usr_local_lib_python2_7_dist-packages_django_core_mail_message.html'
p2397
sg10
S'/usr/local/lib/python2.7/dist-packages/django/core/mail/message'
p2398
sg12
g13
(g14
g15
NtRp2399
(dp2400
g18
I1
sg19
I0
sg20
I242
sg21
I0
sg22
I0
sg23
I182
sg24
I0
sbssg25
S'\xcc\x0c\xe4\xa9\x0cQ\x90\xfe*\xc4\xd4\xfa*$\xfd\xe1'
p2401
ssS'_usr_local_lib_python2_7_dist-packages_django_utils_dateparse'
p2402
(dp2403
g6
(dp2404
g8
S'_usr_local_lib_python2_7_dist-packages_django_utils_dateparse.html'
p2405
sg10
S'/usr/local/lib/python2.7/dist-packages/django/utils/dateparse'
p2406
sg12
g13
(g14
g15
NtRp2407
(dp2408
g18
I1
sg19
I0
sg20
I38
sg21
I0
sg22
I0
sg23
I28
sg24
I0
sbssg25
S'3,\x84O\x7f\x00\x12Q~\x86\xef\x0f\x99\xe2\xcbP'
p2409
ssS'_usr_local_lib_python2_7_dist-packages_django_db_models_deletion'
p2410
(dp2411
g6
(dp2412
g8
S'_usr_local_lib_python2_7_dist-packages_django_db_models_deletion.html'
p2413
sg10
S'/usr/local/lib/python2.7/dist-packages/django/db/models/deletion'
p2414
sg12
g13
(g14
g15
NtRp2415
(dp2416
g18
I1
sg19
I0
sg20
I154
sg21
I0
sg22
I0
sg23
I131
sg24
I0
sbssg25
S'$\x0b\xdd`;\xc0ql\xbb\x7fbp\x17\xe8\xaa\x0e'
p2417
ssS'_usr_local_lib_python2_7_dist-packages_django_db_models_fields_related'
p2418
(dp2419
g6
(dp2420
g8
S'_usr_local_lib_python2_7_dist-packages_django_db_models_fields_related.html'
p2421
sg10
S'/usr/local/lib/python2.7/dist-packages/django/db/models/fields/related'
p2422
sg12
g13
(g14
g15
NtRp2423
(dp2424
g18
I1
sg19
I0
sg20
I1183
sg21
I0
sg22
I0
sg23
I657
sg24
I0
sbssg25
S'\x92\xac@\x03\xf4\xc4\xe7\xc7\xbcK\x8bI{S_/'
p2425
ssS'_usr_local_lib_python2_7_dist-packages_django_utils_xmlutils'
p2426
(dp2427
g6
(dp2428
g8
S'_usr_local_lib_python2_7_dist-packages_django_utils_xmlutils.html'
p2429
sg10
S'/usr/local/lib/python2.7/dist-packages/django/utils/xmlutils'
p2430
sg12
g13
(g14
g15
NtRp2431
(dp2432
g18
I1
sg19
I0
sg20
I9
sg21
I0
sg22
I0
sg23
I6
sg24
I0
sbssg25
S'Z;\r+O\xda\xbe\xfb\xa0\xed9\x1c)\x1fW\xa6'
p2433
ssS'_usr_local_lib_python2_7_dist-packages_django_contrib_staticfiles_templatetags___init__'
p2434
(dp2435
g6
(dp2436
g8
S'_usr_local_lib_python2_7_dist-packages_django_contrib_staticfiles_templatetags___init__.html'
p2437
sg10
S'/usr/local/lib/python2.7/dist-packages/django/contrib/staticfiles/templatetags/__init__'
p2438
sg12
g13
(g14
g15
NtRp2439
(dp2440
g18
I1
sg19
I0
sg20
I0
sg21
I0
sg22
I0
sg23
I0
sg24
I0
sbssg25
S'\xb0\xc8pN\xaf>\xa0\xbaz\x144\xe0A9\xb8?'
p2441
ssS'_usr_local_lib_python2_7_dist-packages_django_db_models_sql_aggregates'
p2442
(dp2443
g6
(dp2444
g8
S'_usr_local_lib_python2_7_dist-packages_django_db_models_sql_aggregates.html'
p2445
sg10
S'/usr/local/lib/python2.7/dist-packages/django/db/models/sql/aggregates'
p2446
sg12
g13
(g14
g15
NtRp2447
(dp2448
g18
I1
sg19
I0
sg20
I70
sg21
I0
sg22
I0
sg23
I34
sg24
I0
sbssg25
S'8Rb\xb1T\x19\x1f\x0e\xb4\xfd\x1f@\xfd\x15w7'
p2449
ssS'_usr_local_lib_python2_7_dist-packages_django_utils_log'
p2450
(dp2451
g6
(dp2452
g8
S'_usr_local_lib_python2_7_dist-packages_django_utils_log.html'
p2453
sg10
S'/usr/local/lib/python2.7/dist-packages/django/utils/log'
p2454
sg12
g13
(g14
g15
NtRp2455
(dp2456
g18
I1
sg19
I0
sg20
I65
sg21
I0
sg22
I0
sg23
I27
sg24
I0
sbssg25
S'\xcb\x9f\x06\xdb%\xffq\xafx\\\x0fx\xae\x03~\xa3'
p2457
ssS'_usr_local_lib_python2_7_dist-packages_rest_framework_negotiation'
p2458
(dp2459
g6
(dp2460
g8
S'_usr_local_lib_python2_7_dist-packages_rest_framework_negotiation.html'
p2461
sg10
S'/usr/local/lib/python2.7/dist-packages/rest_framework/negotiation'
p2462
sg12
g13
(g14
g15
NtRp2463
(dp2464
g18
I1
sg19
I0
sg20
I41
sg21
I0
sg22
I0
sg23
I13
sg24
I0
sbssg25
S'\xa0\xe6{~1m\x12\x84\xf1Q\xdd$j\x83!L'
p2465
ssS'_usr_local_lib_python2_7_dist-packages_rest_framework_validators'
p2466
(dp2467
g6
(dp2468
g8
S'_usr_local_lib_python2_7_dist-packages_rest_framework_validators.html'
p2469
sg10
S'/usr/local/lib/python2.7/dist-packages/rest_framework/validators'
p2470
sg12
g13
(g14
g15
NtRp2471
(dp2472
g18
I1
sg19
I0
sg20
I128
sg21
I0
sg22
I0
sg23
I86
sg24
I0
sbssg25
S'\xc0%G\x0f\t\x94\x05\x83\x85^\xa2\x9b\xa3.#y'
p2473
ssS'_usr_local_lib_python2_7_dist-packages_django_utils__os'
p2474
(dp2475
g6
(dp2476
g8
S'_usr_local_lib_python2_7_dist-packages_django_utils__os.html'
p2477
sg10
S'/usr/local/lib/python2.7/dist-packages/django/utils/_os'
p2478
sg12
g13
(g14
g15
NtRp2479
(dp2480
g18
I1
sg19
I0
sg20
I58
sg21
I0
sg22
I0
sg23
I26
sg24
I0
sbssg25
S'j\x9c@0l\xec:\x90\xad\xfdg\xd2\x9c\x03\xd8^'
p2481
ssS'_usr_local_lib_python2_7_dist-packages_django_db_models_sql___init__'
p2482
(dp2483
g6
(dp2484
g8
S'_usr_local_lib_python2_7_dist-packages_django_db_models_sql___init__.html'
p2485
sg10
S'/usr/local/lib/python2.7/dist-packages/django/db/models/sql/__init__'
p2486
sg12
g13
(g14
g15
NtRp2487
(dp2488
g18
I1
sg19
I0
sg20
I5
sg21
I0
sg22
I0
sg23
I0
sg24
I0
sbssg25
S'\xee\x05~\x14<\xbd\xceO\xa9\xcf\xd3\t\x04\xfbDP'
p2489
ssS'_usr_local_lib_python2_7_dist-packages_django_forms_formsets'
p2490
(dp2491
g6
(dp2492
g8
S'_usr_local_lib_python2_7_dist-packages_django_forms_formsets.html'
p2493
sg10
S'/usr/local/lib/python2.7/dist-packages/django/forms/formsets'
p2494
sg12
g13
(g14
g15
NtRp2495
(dp2496
g18
I1
sg19
I0
sg20
I221
sg21
I0
sg22
I0
sg23
I160
sg24
I0
sbssg25
S'\xa5\x0f\xf0\xb6\x17\x9f\xa0\x84\xcf\x00%\xd0_.\xfe\xbd'
p2497
ssS'_usr_local_lib_python2_7_dist-packages_django_shortcuts'
p2498
(dp2499
g6
(dp2500
g8
S'_usr_local_lib_python2_7_dist-packages_django_shortcuts.html'
p2501
sg10
S'/usr/local/lib/python2.7/dist-packages/django/shortcuts'
p2502
sg12
g13
(g14
g15
NtRp2503
(dp2504
g18
I1
sg19
I0
sg20
I68
sg21
I0
sg22
I0
sg23
I49
sg24
I0
sbssg25
S'e\x05\xa3n\x19\x85\xea\n\r\xc0>\x99\xdfM\xc4^'
p2505
ssS'_usr_local_lib_python2_7_dist-packages_django_utils_datetime_safe'
p2506
(dp2507
g6
(dp2508
g8
S'_usr_local_lib_python2_7_dist-packages_django_utils_datetime_safe.html'
p2509
sg10
S'/usr/local/lib/python2.7/dist-packages/django/utils/datetime_safe'
p2510
sg12
g13
(g14
g15
NtRp2511
(dp2512
g18
I1
sg19
I0
sg20
I58
sg21
I0
sg22
I0
sg23
I42
sg24
I0
sbssg25
S"\xaeX \xe3JY'{\xf0\x02\xe0\xc0\x11H\x1f\x1f"
p2513
ssS'_usr_local_lib_python2_7_dist-packages_django_utils_synch'
p2514
(dp2515
g6
(dp2516
g8
S'_usr_local_lib_python2_7_dist-packages_django_utils_synch.html'
p2517
sg10
S'/usr/local/lib/python2.7/dist-packages/django/utils/synch'
p2518
sg12
g13
(g14
g15
NtRp2519
(dp2520
g18
I1
sg19
I0
sg20
I59
sg21
I0
sg22
I0
sg23
I41
sg24
I0
sbssg25
S'\xa7\t\n\xfc\xae\xdd\xfb\xff\x9c \xb4\xdb\xe0\xa2\x88\xb3'
p2521
ssS'_usr_local_lib_python2_7_dist-packages_django_test_testcases'
p2522
(dp2523
g6
(dp2524
g8
S'_usr_local_lib_python2_7_dist-packages_django_test_testcases.html'
p2525
sg10
S'/usr/local/lib/python2.7/dist-packages/django/test/testcases'
p2526
sg12
g13
(g14
g15
NtRp2527
(dp2528
g18
I1
sg19
I0
sg20
I604
sg21
I0
sg22
I0
sg23
I409
sg24
I0
sbssg25
S'r\xa3\x1c\x1ak\x8e\x99$>9a\x18xs\xeb\xa9'
p2529
ssS'_usr_local_lib_python2_7_dist-packages_django_forms_fields'
p2530
(dp2531
g6
(dp2532
g8
S'_usr_local_lib_python2_7_dist-packages_django_forms_fields.html'
p2533
sg10
S'/usr/local/lib/python2.7/dist-packages/django/forms/fields'
p2534
sg12
g13
(g14
g15
NtRp2535
(dp2536
g18
I1
sg19
I0
sg20
I676
sg21
I0
sg22
I0
sg23
I455
sg24
I0
sbssg25
S'\xba9ER\xdcH\x86\xd1\x00\xc1\x1b\x13\x82\x9a\xc3\xdf'
p2537
ssS'_usr_local_lib_python2_7_dist-packages_django_db_migrations___init__'
p2538
(dp2539
g6
(dp2540
g8
S'_usr_local_lib_python2_7_dist-packages_django_db_migrations___init__.html'
p2541
sg10
S'/usr/local/lib/python2.7/dist-packages/django/db/migrations/__init__'
p2542
sg12
g13
(g14
g15
NtRp2543
(dp2544
g18
I1
sg19
I0
sg20
I2
sg21
I0
sg22
I0
sg23
I0
sg24
I0
sbssg25
S'\xe3A\xfdeM\xdcG\r\xfe\x11\x0cB\xe4\xb8\x00]'
p2545
ssS'_usr_local_lib_python2_7_dist-packages_django_contrib___init__'
p2546
(dp2547
g6
(dp2548
g8
S'_usr_local_lib_python2_7_dist-packages_django_contrib___init__.html'
p2549
sg10
S'/usr/local/lib/python2.7/dist-packages/django/contrib/__init__'
p2550
sg12
g13
(g14
g15
NtRp2551
(dp2552
g18
I1
sg19
I0
sg20
I0
sg21
I0
sg22
I0
sg23
I0
sg24
I0
sbssg25
S'\xb0\xc8pN\xaf>\xa0\xbaz\x144\xe0A9\xb8?'
p2553
ssS'_usr_local_lib_python2_7_dist-packages_django_core_servers___init__'
p2554
(dp2555
g6
(dp2556
g8
S'_usr_local_lib_python2_7_dist-packages_django_core_servers___init__.html'
p2557
sg10
S'/usr/local/lib/python2.7/dist-packages/django/core/servers/__init__'
p2558
sg12
g13
(g14
g15
NtRp2559
(dp2560
g18
I1
sg19
I0
sg20
I0
sg21
I0
sg22
I0
sg23
I0
sg24
I0
sbssg25
S'\xb0\xc8pN\xaf>\xa0\xbaz\x144\xe0A9\xb8?'
p2561
ssS'_usr_local_lib_python2_7_dist-packages_rest_framework_relations'
p2562
(dp2563
g6
(dp2564
g8
S'_usr_local_lib_python2_7_dist-packages_rest_framework_relations.html'
p2565
sg10
S'/usr/local/lib/python2.7/dist-packages/rest_framework/relations'
p2566
sg12
g13
(g14
g15
NtRp2567
(dp2568
g18
I1
sg19
I0
sg20
I181
sg21
I0
sg22
I0
sg23
I123
sg24
I0
sbssg25
S'\x08\xb2^R]K\xa3\xdf\xb5\x8b9\xf6\xb5\xe7\xd0\x8f'
p2569
ssS'_usr_local_lib_python2_7_dist-packages_django_core_cache_backends_locmem'
p2570
(dp2571
g6
(dp2572
g8
S'_usr_local_lib_python2_7_dist-packages_django_core_cache_backends_locmem.html'
p2573
sg10
S'/usr/local/lib/python2.7/dist-packages/django/core/cache/backends/locmem'
p2574
sg12
g13
(g14
g15
NtRp2575
(dp2576
g18
I1
sg19
I0
sg20
I108
sg21
I0
sg22
I0
sg23
I81
sg24
I0
sbssg25
S'\x13\xb5=\x07\x93\x14ZX9\x1b\x9au\x8d6/\xfc'
p2577
ssS'_usr_local_lib_python2_7_dist-packages_django_contrib_staticfiles_templatetags_staticfiles'
p2578
(dp2579
g6
(dp2580
g8
S'_usr_local_lib_python2_7_dist-packages_django_contrib_staticfiles_templatetags_staticfiles.html'
p2581
sg10
S'/usr/local/lib/python2.7/dist-packages/django/contrib/staticfiles/templatetags/staticfiles'
p2582
sg12
g13
(g14
g15
NtRp2583
(dp2584
g18
I1
sg19
I0
sg20
I12
sg21
I0
sg22
I0
sg23
I0
sg24
I0
sbssg25
S'\xf3\xa3>&\x8c\x0bcKH\xc0\xd1\x9e\x9cb0\x92'
p2585
ssS'_usr_local_lib_python2_7_dist-packages_django_db_migrations_writer'
p2586
(dp2587
g6
(dp2588
g8
S'_usr_local_lib_python2_7_dist-packages_django_db_migrations_writer.html'
p2589
sg10
S'/usr/local/lib/python2.7/dist-packages/django/db/migrations/writer'
p2590
sg12
g13
(g14
g15
NtRp2591
(dp2592
g18
I1
sg19
I0
sg20
I273
sg21
I0
sg22
I0
sg23
I232
sg24
I0
sbssg25
S'\xf2\xf3\x16P\xd2\xaf\xca\x10H\x9e\xd9\x83d^\xfc]'
p2593
ssS'_usr_local_lib_python2_7_dist-packages_django_dispatch_weakref_backports'
p2594
(dp2595
g6
(dp2596
g8
S'_usr_local_lib_python2_7_dist-packages_django_dispatch_weakref_backports.html'
p2597
sg10
S'/usr/local/lib/python2.7/dist-packages/django/dispatch/weakref_backports'
p2598
sg12
g13
(g14
g15
NtRp2599
(dp2600
g18
I1
sg19
I0
sg20
I40
sg21
I0
sg22
I0
sg23
I18
sg24
I0
sbssg25
S'FmO\x1e\xb0\x8e\x1a\xff\x8b\x81\xdfI\xc4\x06\x04\x83'
p2601
ssS'_usr_local_lib_python2_7_dist-packages_django_template_defaulttags'
p2602
(dp2603
g6
(dp2604
g8
S'_usr_local_lib_python2_7_dist-packages_django_template_defaulttags.html'
p2605
sg10
S'/usr/local/lib/python2.7/dist-packages/django/template/defaulttags'
p2606
sg12
g13
(g14
g15
NtRp2607
(dp2608
g18
I1
sg19
I0
sg20
I621
sg21
I0
sg22
I0
sg23
I489
sg24
I0
sbssg25
S'\xda\xb2\xcbfh\x8f\xfeK\x8d@\x0eq\x85\x9fk0'
p2609
ssS'_usr_local_lib_python2_7_dist-packages_django_core_handlers_wsgi'
p2610
(dp2611
g6
(dp2612
g8
S'_usr_local_lib_python2_7_dist-packages_django_core_handlers_wsgi.html'
p2613
sg10
S'/usr/local/lib/python2.7/dist-packages/django/core/handlers/wsgi'
p2614
sg12
g13
(g14
g15
NtRp2615
(dp2616
g18
I1
sg19
I0
sg20
I160
sg21
I0
sg22
I0
sg23
I72
sg24
I0
sbssg25
S'\x15\x1a\xbb\x0fA\xa5w3\xb2[\x16tp)\xa6F'
p2617
ssS'_usr_local_lib_python2_7_dist-packages_django_template_loaders_app_directories'
p2618
(dp2619
g6
(dp2620
g8
S'_usr_local_lib_python2_7_dist-packages_django_template_loaders_app_directories.html'
p2621
sg10
S'/usr/local/lib/python2.7/dist-packages/django/template/loaders/app_directories'
p2622
sg12
g13
(g14
g15
NtRp2623
(dp2624
g18
I1
sg19
I0
sg20
I42
sg21
I0
sg22
I0
sg23
I17
sg24
I0
sbssg25
S'\x0f.\x8e\xb5}W\x86\xfe\xdc\xd1q\xf1\x0e \x9f\xcf'
p2625
ssS'_usr_local_lib_python2_7_dist-packages_django_db_migrations_migration'
p2626
(dp2627
g6
(dp2628
g8
S'_usr_local_lib_python2_7_dist-packages_django_db_migrations_migration.html'
p2629
sg10
S'/usr/local/lib/python2.7/dist-packages/django/db/migrations/migration'
p2630
sg12
g13
(g14
g15
NtRp2631
(dp2632
g18
I1
sg19
I0
sg20
I79
sg21
I0
sg22
I0
sg23
I35
sg24
I0
sbssg25
S'uv\xd4j\x1c\x9dT\xb3\xd8\x16\xcdM\xb3K\xbc\x8b'
p2633
ssS'_usr_local_lib_python2_7_dist-packages_django_contrib_sessions_models'
p2634
(dp2635
g6
(dp2636
g8
S'_usr_local_lib_python2_7_dist-packages_django_contrib_sessions_models.html'
p2637
sg10
S'/usr/local/lib/python2.7/dist-packages/django/contrib/sessions/models'
p2638
sg12
g13
(g14
g15
NtRp2639
(dp2640
g18
I1
sg19
I0
sg20
I24
sg21
I0
sg22
I0
sg23
I7
sg24
I0
sbssg25
S' 56(\x10\x18\xb4l\xd5\xc1\xf5\x14\xf7\xcb.}'
p2641
ssS'_usr_local_lib_python2_7_dist-packages_rest_framework_fields'
p2642
(dp2643
g6
(dp2644
g8
S'_usr_local_lib_python2_7_dist-packages_rest_framework_fields.html'
p2645
sg10
S'/usr/local/lib/python2.7/dist-packages/rest_framework/fields'
p2646
sg12
g13
(g14
g15
NtRp2647
(dp2648
g18
I1
sg19
I0
sg20
I741
sg21
I0
sg22
I0
sg23
I488
sg24
I0
sbssg25
S'\x05\xee\xec<\xe5n\xcc+ew&\xeenC\xfa}'
p2649
ssS'myapp_serializers'
p2650
(dp2651
g6
(dp2652
g8
S'myapp_serializers.html'
p2653
sg10
S'myapp/serializers'
p2654
sg12
g13
(g14
g15
NtRp2655
(dp2656
g18
I1
sg19
I0
sg20
I15
sg21
I0
sg22
I0
sg23
I0
sg24
I0
sbssg25
S'm\xb8\x08>/?\xbc\x9f\x85\tx<\xa3\xb8B\xa0'
p2657
ssS'_usr_local_lib_python2_7_dist-packages_django_utils_encoding'
p2658
(dp2659
g6
(dp2660
g8
S'_usr_local_lib_python2_7_dist-packages_django_utils_encoding.html'
p2661
sg10
S'/usr/local/lib/python2.7/dist-packages/django/utils/encoding'
p2662
sg12
g13
(g14
g15
NtRp2663
(dp2664
g18
I1
sg19
I0
sg20
I98
sg21
I0
sg22
I0
sg23
I37
sg24
I0
sbssg25
S'>#.\x8dTH\x04i\xba\xe6\xd7\x96\x00\x044\xdd'
p2665
ssS'_usr_local_lib_python2_7_dist-packages_django_test_signals'
p2666
(dp2667
g6
(dp2668
g8
S'_usr_local_lib_python2_7_dist-packages_django_test_signals.html'
p2669
sg10
S'/usr/local/lib/python2.7/dist-packages/django/test/signals'
p2670
sg12
g13
(g14
g15
NtRp2671
(dp2672
g18
I1
sg19
I0
sg20
I79
sg21
I0
sg22
I0
sg23
I57
sg24
I0
sbssg25
S'\xfa \x8fI_\x9bF\xe9\n\x8f!!\x9a%,7'
p2673
ssS'_usr_local_lib_python2_7_dist-packages_django_core_validators'
p2674
(dp2675
g6
(dp2676
g8
S'_usr_local_lib_python2_7_dist-packages_django_core_validators.html'
p2677
sg10
S'/usr/local/lib/python2.7/dist-packages/django/core/validators'
p2678
sg12
g13
(g14
g15
NtRp2679
(dp2680
g18
I1
sg19
I0
sg20
I178
sg21
I0
sg22
I0
sg23
I78
sg24
I0
sbssg25
S'\x17\xcf\x84|\xaa\xdfuo\x95w\x1a\xcc\xaf\x93o\x0f'
p2681
ssS'_usr_local_lib_python2_7_dist-packages_rest_framework_utils_humanize_datetime'
p2682
(dp2683
g6
(dp2684
g8
S'_usr_local_lib_python2_7_dist-packages_rest_framework_utils_humanize_datetime.html'
p2685
sg10
S'/usr/local/lib/python2.7/dist-packages/rest_framework/utils/humanize_datetime'
p2686
sg12
g13
(g14
g15
NtRp2687
(dp2688
g18
I1
sg19
I0
sg20
I15
sg21
I0
sg22
I0
sg23
I10
sg24
I0
sbssg25
S'\xaf\xca\x1c\xc2\xac\x0f>\x83\\\xc2%\xb9\x052Nu'
p2689
ssS'_usr_local_lib_python2_7_dist-packages_django_contrib_contenttypes_checks'
p2690
(dp2691
g6
(dp2692
g8
S'_usr_local_lib_python2_7_dist-packages_django_contrib_contenttypes_checks.html'
p2693
sg10
S'/usr/local/lib/python2.7/dist-packages/django/contrib/contenttypes/checks'
p2694
sg12
g13
(g14
g15
NtRp2695
(dp2696
g18
I1
sg19
I0
sg20
I10
sg21
I0
sg22
I0
sg23
I1
sg24
I0
sbssg25
S'\xd1\xc8w\xe5\xbf\x03\xa5\xd1\xbexc\xbb\x98\xcf{B'
p2697
ssS'_usr_local_lib_python2_7_dist-packages_django_contrib_auth_hashers'
p2698
(dp2699
g6
(dp2700
g8
S'_usr_local_lib_python2_7_dist-packages_django_contrib_auth_hashers.html'
p2701
sg10
S'/usr/local/lib/python2.7/dist-packages/django/contrib/auth/hashers'
p2702
sg12
g13
(g14
g15
NtRp2703
(dp2704
g18
I1
sg19
I0
sg20
I247
sg21
I0
sg22
I0
sg23
I160
sg24
I0
sbssg25
S'&{Q\x1d\xdf\x1a{\xd2D\xcc]\xfa\xe0\x95\x9f['
p2705
ssS'_usr_local_lib_python2_7_dist-packages_django_core_cache___init__'
p2706
(dp2707
g6
(dp2708
g8
S'_usr_local_lib_python2_7_dist-packages_django_core_cache___init__.html'
p2709
sg10
S'/usr/local/lib/python2.7/dist-packages/django/core/cache/__init__'
p2710
sg12
g13
(g14
g15
NtRp2711
(dp2712
g18
I1
sg19
I0
sg20
I72
sg21
I0
sg22
I0
sg23
I23
sg24
I0
sbssg25
S'k\x8b\xa1\xcc\x85\x83\xe6\xfd\x00\x88\xa5\xc0\xe4\x89\xd4\x13'
p2713
ssS'_usr_local_lib_python2_7_dist-packages_django_contrib_admin_models'
p2714
(dp2715
g6
(dp2716
g8
S'_usr_local_lib_python2_7_dist-packages_django_contrib_admin_models.html'
p2717
sg10
S'/usr/local/lib/python2.7/dist-packages/django/contrib/admin/models'
p2718
sg12
g13
(g14
g15
NtRp2719
(dp2720
g18
I1
sg19
I0
sg20
I57
sg21
I0
sg22
I0
sg23
I21
sg24
I0
sbssg25
S'\x1c\xa0_A\xc9\xe0M\xd8\x10\xaa\x83~\xf2o\x99j'
p2721
ssS'_usr_local_lib_python2_7_dist-packages_django_apps___init__'
p2722
(dp2723
g6
(dp2724
g8
S'_usr_local_lib_python2_7_dist-packages_django_apps___init__.html'
p2725
sg10
S'/usr/local/lib/python2.7/dist-packages/django/apps/__init__'
p2726
sg12
g13
(g14
g15
NtRp2727
(dp2728
g18
I1
sg19
I0
sg20
I2
sg21
I0
sg22
I0
sg23
I0
sg24
I0
sbssg25
S'\x0c%\xf7&\xe8\xc2\xf7\xc3\xbe\xae,\xc0\xc1?\x18g'
p2729
ssS'_usr_local_lib_python2_7_dist-packages_rest_framework_permissions'
p2730
(dp2731
g6
(dp2732
g8
S'_usr_local_lib_python2_7_dist-packages_rest_framework_permissions.html'
p2733
sg10
S'/usr/local/lib/python2.7/dist-packages/rest_framework/permissions'
p2734
sg12
g13
(g14
g15
NtRp2735
(dp2736
g18
I1
sg19
I0
sg20
I59
sg21
I0
sg22
I0
sg23
I32
sg24
I0
sbssg25
S'&D\xd71\xeb\x84t\xd9\xdcBn\xa6\x1ag\xe5&'
p2737
ssS'myapp_models'
p2738
(dp2739
g6
(dp2740
g8
S'myapp_models.html'
p2741
sg10
S'myapp/models'
p2742
sg12
g13
(g14
g15
NtRp2743
(dp2744
g18
I1
sg19
I0
sg20
I6
sg21
I0
sg22
I0
sg23
I1
sg24
I0
sbssg25
S'\x0fa\x1e(\xf7#\xd5Ag\x96\x06R\x1e\xec\xfc\x0e'
p2745
ssS'_usr_local_lib_python2_7_dist-packages_django_forms_utils'
p2746
(dp2747
g6
(dp2748
g8
S'_usr_local_lib_python2_7_dist-packages_django_forms_utils.html'
p2749
sg10
S'/usr/local/lib/python2.7/dist-packages/django/forms/utils'
p2750
sg12
g13
(g14
g15
NtRp2751
(dp2752
g18
I1
sg19
I0
sg20
I90
sg21
I0
sg22
I0
sg23
I50
sg24
I0
sbssg25
S'\x85\x1d\xc8C\n\x17\\\x85cL\x9e\xebc\xcf\xed\xf3'
p2753
ssS'_usr_local_lib_python2_7_dist-packages_django_contrib_auth_forms'
p2754
(dp2755
g6
(dp2756
g8
S'_usr_local_lib_python2_7_dist-packages_django_contrib_auth_forms.html'
p2757
sg10
S'/usr/local/lib/python2.7/dist-packages/django/contrib/auth/forms'
p2758
sg12
g13
(g14
g15
NtRp2759
(dp2760
g18
I1
sg19
I0
sg20
I189
sg21
I0
sg22
I0
sg23
I110
sg24
I0
sbssg25
S'\x08\x11}\x16\xeb\x86\xa3\xedT\xc9\xba\xe5\x1b\x0f9o'
p2761
ssS'_usr_local_lib_python2_7_dist-packages_django_db_backends_mysql_creation'
p2762
(dp2763
g6
(dp2764
g8
S'_usr_local_lib_python2_7_dist-packages_django_db_backends_mysql_creation.html'
p2765
sg10
S'/usr/local/lib/python2.7/dist-packages/django/db/backends/mysql/creation'
p2766
sg12
g13
(g14
g15
NtRp2767
(dp2768
g18
I1
sg19
I0
sg20
I28
sg21
I0
sg22
I0
sg23
I17
sg24
I0
sbssg25
S'\x1f\xf9\xdc*\xc2\xe2\xfa\xf9\xb8\xf6\x8cc%2\xf0\xb0'
p2769
ssS'_usr_local_lib_python2_7_dist-packages_django___init__'
p2770
(dp2771
g6
(dp2772
g8
S'_usr_local_lib_python2_7_dist-packages_django___init__.html'
p2773
sg10
S'/usr/local/lib/python2.7/dist-packages/django/__init__'
p2774
sg12
g13
(g14
g15
NtRp2775
(dp2776
g18
I1
sg19
I0
sg20
I10
sg21
I0
sg22
I0
sg23
I0
sg24
I0
sbssg25
S'\xcd\x81\x0b\x9d\xa9\xe6\\T\xf4a\xc7\x81\n2b\x86'
p2777
sssS'version'
p2778
S'3.6'
p2779
sS'settings'
p2780
S'3\xcf\xa1\x19.\x88o$\x8cA\xde\xbd\xcd\x06\xa1\x0f'
p2781
sS'format'
p2782
I1
s.